(dp0
S'Lineman'
p1
(dp2
I19459
F3.75
sI996617
F3.5
sI1164887
I4
sI1195660
F3.5
sI78762
F3.75
sI1078672
F2.75
sI1211921
F3.5
sI867094
I4
sI1080729
F3.5
sI68762
F3.25
sI654876
F3.5
sI1200154
F2.5
sI1146309
F3.75
sI74272
F3.75
sI1152673
F3.75
sI1196452
F3.5
sI283429
F2.75
sI1183142
F3.75
sI68394
I3
sI155824
F3.75
sI1201976
I3
sI383546
F2.75
sI6687
I4
sI21296
F2.75
sI680480
I3
sI776261
I2
sI979144
F3.75
sI40139
F3.25
sI1153869
F3.5
sI1081631
F3.25
sI960086
F3.25
sI1178794
F3.25
sI1158799
F4.25
sI1204410
F2.5
sI1092574
F3.75
sI5862
F3.25
sI31633
I3
sI1110249
I3
sI19691
F2.5
sI308462
F3.5
sI14192
F3.5
sI1193973
I3
sI5879
F3.25
sI1029497
I3
sI1030394
F4.25
sI1201531
F2.75
sI7420
F3.5
sI179965
F3.5
sI338942
F3.25
sI97663
F3.25
ssS'YourBeerConcierge'
p3
(dp4
I3587
F2.5
sI5132
F3.25
sI5133
F3.25
sI2447
I3
sI495120
F2.75
sI2840
I4
sI17075
F3.75
sI557976
F2.75
sI104217
I4
sI95386
F3.75
sI951964
F3.5
sI56093
F2.5
sI5406
F4.5
sI589601
I3
sI577315
F3.5
sI171172
I5
sI4133
F2.5
sI98726
F3.5
sI679598
I2
sI4509
F4.5
sI92659
F3.25
sI1000372
F3.5
sI926238
F3.5
sI2870
F4.5
sI784953
F3.75
sI4667
F3.5
sI586941
F3.5
sI510143
F3.5
sI131265
I3
sI96971
F3.5
sI24589
F3.75
sI772435
I4
sI326740
F4.25
sI5845
F4.75
sI3032
I4
sI862169
F2.25
sI1058656
F4.5
sI740835
F3.25
sI114278
F3.75
sI6504
F3.25
sI2025
I3
sI364524
F2.75
sI95981
F4.5
sI8558
I4
sI575984
I0
sI11763
I3
sI14838
F0.25
sI1025527
I4
sI27385
F4.25
sI380797
F3.25
ssS'TylerRoby'
p5
(dp6
I6400
F3.25
sI4488
I2
sI16649
F3.5
sI303117
I4
sI495120
F2.5
sI124504
F2.25
sI608914
I4
sI8981
F3.5
sI222614
F3.5
sI917
I4
sI84251
F3.25
sI4509
F3.25
sI6687
I4
sI3784
F2.75
sI4515
F3.75
sI13105
F3.5
sI4010
I3
sI342315
I2
sI9644
I4
sI524080
I3
sI8113
F3.75
sI5427
F2.25
sI5428
I3
sI6585
F3.25
sI938229
I4
sI269505
F3.5
sI493638
I3
sI3783
F2.5
sI6344
F3.25
sI867402
I4
sI271436
F1.75
sI79053
F3.5
sI1238
F1.25
sI128855
I4
sI60888
F3.5
sI175578
F3.75
sI81914
F3.75
sI3839
I3
sI36834
F3.5
sI511589
I4
sI71016
I4
sI294761
F3.75
sI8172
I3
sI773232
F3.75
sI8949
I3
sI76663
I4
sI4473
I2
sI3834
F1.25
sI8063
F3.25
sI6655
I2
ssS'kmh0185'
p7
(dp8
I145409
I0
sI8324
I0
sI61067
I0
sI9613
I0
sI123662
I0
sI602768
I0
sI1553
I0
sI1034642
I0
sI934035
I0
sI864279
I0
sI863899
I0
sI1105309
I0
sI198690
I0
sI1142563
I0
sI518052
I0
sI1052453
I0
sI21543
I0
sI41768
I0
sI48243
I0
sI117685
I0
sI92984
I0
sI1006943
I0
sI20290
I0
sI911037
I0
sI94270
I0
sI35681
I0
sI63554
I0
sI5571
I0
sI367558
I0
sI2247
I0
sI1082056
I0
sI502219
I0
sI13388
I0
sI851493
I0
sI15438
I0
sI276691
I0
sI74073
I0
sI37235
I0
sI4133
I0
sI6497
I0
sI3558
I0
sI174055
I0
sI8172
I0
sI4079
I0
sI1036915
I0
sI1220214
I0
sI52344
I0
sI2425
I0
sI499962
I0
sI53115
I0
ssS'gratefulseige'
p9
(dp10
I1120384
F4.5
sI145409
F4.5
sI1159940
F4.25
sI48390
I4
sI393225
F3.5
sI1202698
I4
sI75531
I4
sI733838
I0
sI6416
F3.25
sI1157526
I4
sI427415
I3
sI1177647
F4.5
sI1182941
F4.5
sI1098400
I4
sI1183009
I4
sI913247
I4
sI1158693
I4
sI468518
I4
sI822807
F4.5
sI5427
I4
sI1095087
I4
sI355378
I2
sI71091
I4
sI533432
F3.5
sI3770
I4
sI1139167
I4
sI840623
I4
sI257857
I4
sI899673
I4
sI1136673
I4
sI3914
I3
sI15185
I4
sI682450
I3
sI188377
I4
sI913115
I4
sI938076
F4.5
sI1102173
F4.5
sI1181221
I4
sI385890
F4.5
sI403941
F4.5
sI1088593
I4
sI902376
I4
sI1013995
I4
sI205038
I3
sI325864
F4.25
sI273650
I4
sI44533
I4
sI598909
I4
sI74073
F3.5
sI1207295
F4.5
ssS'swolfie83'
p11
(dp12
I8576
I0
sI6274
I0
sI733099
I0
sI6277
I0
sI7174
I0
sI10759
I0
sI728589
I0
sI7182
I0
sI4879
I0
sI311058
I0
sI528918
I0
sI4463
I0
sI4511
I0
sI7203
I0
sI4133
I0
sI81446
I0
sI1031081
I0
sI405035
I0
sI10887
I0
sI389551
I0
sI19855
I0
sI1126495
I0
sI1029547
I0
sI11894
I0
sI493638
I0
sI7535
I0
sI3784
I0
sI3916
I0
sI646626
I0
sI24589
I0
sI5848
I0
sI5849
I0
sI5210
I0
sI150619
I0
sI946091
I0
sI922078
I0
sI223
I0
sI388193
I0
sI115170
I0
sI3811
I0
sI365698
I0
sI3942
I0
sI7146
I0
sI565650
I0
sI6767
I0
sI470642
I0
sI4467
I0
sI690934
I0
sI557943
I0
sI3834
I0
ssS'Begendluth'
p13
(dp14
I912790
F4.5
sI390662
F3.75
sI24589
F4.5
sI9366
F4.5
sI144153
F4.5
sI95386
F4.25
sI296730
F4.25
sI591300
F4.75
sI664479
F4.5
sI919174
I4
sI8745
I4
sI5930
I3
sI392748
I4
sI72240
F4.25
sI9657
F4.75
sI210755
F3.5
sI25668
I4
sI867402
F4.5
sI1029067
I4
sI13176
F2.75
sI296726
F3.75
sI11988
F3.5
sI1164887
I4
sI285658
I4
sI113889
F4.5
sI426475
F2.75
sI221993
F4.25
sI3952
I0
sI12787
F4.25
sI642165
F4.25
sI1031081
F3.75
sI82680
I4
sI913150
F3.25
ssS'gscme70'
p15
(dp16
I716545
I4
sI48390
F3.5
sI783489
F2.5
sI1083863
I4
sI641422
F3.75
sI1078672
I3
sI1194514
F3.25
sI676116
F3.75
sI1146648
F2.5
sI6937
F3.25
sI4890
F2.5
sI825115
I4
sI12322
I3
sI356259
F3.5
sI202788
F3.75
sI1136293
I4
sI960294
F3.5
sI1145128
F3.5
sI402226
F3.75
sI1182941
F4.5
sI859442
F3.5
sI1145268
F3.25
sI2870
F3.75
sI1037114
F3.75
sI748990
F3.75
sI613696
I4
sI676033
F3.25
sI262308
F3.75
sI1128516
I3
sI101829
F3.25
sI426055
I4
sI1145160
I4
sI1166923
F3.75
sI896076
F3.5
sI1171791
F3.5
sI43858
F3.25
sI1126357
F3.5
sI292310
F3.5
sI722263
F3.25
sI74073
F3.25
sI314406
I4
sI703197
F3.75
sI1181221
F3.5
sI677349
I4
sI1160687
F3.5
sI704641
F3.25
sI198458
F4.25
sI718586
I4
sI799614
F3.25
sI900053
F3.5
ssS'Eigenbeer'
p17
(dp18
I286338
F3.5
sI5569
I4
sI3832
F3.75
sI468013
F3.25
sI47456
F3.5
sI100115
F3.25
sI1065366
I3
sI1087258
F3.5
sI685468
F3.5
sI269469
F4.25
sI156196
F3.25
sI976551
I4
sI198572
F3.5
sI9389
F3.75
sI313
F3.75
sI92859
F3.5
sI5564
F2.75
sI317
F3.75
sI318
F3.5
sI319
I4
sI131265
I3
sI1191115
F4.5
sI1168970
I4
sI838987
I4
sI193485
F3.5
sI567502
I4
sI10722
I4
sI4653
F3.75
sI735140
F3.5
sI1242
F3.25
sI836317
F3.75
sI815200
I3
sI8289
F3.25
sI10210
F2.75
sI5475
F3.5
sI1253
I4
sI6887
F3.25
sI356840
I4
sI1032810
I4
sI7847
F3.75
sI414573
F3.5
sI944366
F3.5
sI1172975
I4
sI4465
F3.25
sI707954
I4
sI27380
I4
sI808821
F3.5
sI883318
I4
sI237560
I4
sI560376
F3.25
ssS'Mwc2121'
p19
(dp20
I593156
I0
sI6422
I0
sI144777
I4
sI3785
F2.5
sI189037
I0
sI3603
F4.25
sI855316
I3
sI499862
F2.5
sI100888
F2.25
sI1038233
I5
sI360559
I5
sI3837
I0
sI1038278
I2
sI50983
F3.5
sI3948
F2.5
sI3245
F2.5
sI135990
I4
sI192695
F3.25
sI218427
I5
sI39740
F2.5
sI4588
I0
sI1085632
F2.75
sI612704
F2.5
sI156870
I0
sI430537
I5
sI867402
I5
sI13388
F1.25
sI36834
I0
sI850108
I0
sI192981
I5
sI5849
I2
sI864352
I5
sI6601
I4
sI912763
I0
sI5860
F2.5
sI10469
F4.5
sI5991
F2.5
sI40425
F4.75
sI6122
I2
sI5867
F2.5
sI6124
F3.25
sI4589
I0
sI55151
F0.5
sI773232
I1
sI1013
I2
sI136823
I3
sI146808
I2
sI4473
I0
sI38907
I0
sI6890
I5
ssS'TacitApproval'
p21
(dp22
I7044
F3.25
sI347653
F3.75
sI4870
I4
sI776841
I4
sI10327
I3
sI1935
I2
sI1161873
F3.75
sI933141
I4
sI795543
I4
sI10010
F3.5
sI595611
F3.75
sI304924
F4.25
sI16649
F2.5
sI418339
F3.5
sI6308
F3.5
sI244901
F4.75
sI844841
F4.25
sI392748
F3.75
sI273966
F3.5
sI155824
I4
sI7345
F3.25
sI556978
F3.25
sI586038
F2.75
sI862473
I4
sI234171
I4
sI236481
F3.5
sI727747
I4
sI5558
I4
sI1123783
F3.5
sI978
I3
sI347859
F3.75
sI886997
F2.75
sI1142230
I4
sI652375
F4.25
sI74073
F2.75
sI77455
F3.75
sI33244
F3.75
sI360414
I3
sI407654
F4.25
sI6504
F3.25
sI3820
F3.25
sI3950
F4.25
sI1212783
I4
sI34673
F3.5
sI244212
F3.5
sI81525
F4.25
sI8056
F3.75
sI1138044
I4
sI11517
F3.75
sI379029
F4.25
ssS'disconnect'
p23
(dp24
I899819
F3.5
sI6154
F3.25
sI1143179
F3.75
sI1158799
I3
sI631184
I4
sI184722
F2.75
sI856723
F4.5
sI272916
F3.5
sI202775
F3.5
sI652697
F3.5
sI993691
F3.25
sI13470
F2.75
sI5279
I4
sI11810
I3
sI1045411
F3.75
sI43684
F2.75
sI976551
F3.5
sI1206440
I3
sI1109033
F3.75
sI139564
F1.75
sI1024688
F3.25
sI1189682
F3.25
sI5558
F4.25
sI55095
F3.75
sI21563
F3.5
sI1085502
F3.25
sI5964
F2.25
sI6609
F3.25
sI314966
I3
sI1025880
F2.75
sI479449
F3.25
sI18010
F3.5
sI65759
F3.25
sI1008227
I3
sI7269
I3
sI327910
F3.25
sI346727
F3.5
sI50152
F3.5
sI233
F3.5
sI1222890
I5
sI1191399
F4.25
sI4079
F2.75
sI348675
I4
sI174195
F3.75
sI1101942
F3.5
sI285993
F3.5
sI24312
F2.75
sI5626
I3
sI38779
F2.75
sI178047
I4
ssS'glasscow'
p25
(dp26
I5867
I0
sI764932
F3.5
sI350981
I3
sI49459
I4
sI130571
I3
sI517772
F3.5
sI12045
F2.5
sI1225488
F1.5
sI1212689
I2
sI344214
I3
sI121880
F3.5
sI7834
I0
sI360559
I0
sI67996
F4.5
sI56093
I0
sI349087
F2.5
sI164769
I3
sI23586
F3.75
sI1165859
F2.75
sI93350
I3
sI66344
I1
sI98089
I0
sI22442
F3.75
sI142387
F2.75
sI5941
I4
sI5942
F3.25
sI374584
F3.5
sI1007289
I0
sI332969
I5
sI6976
F3.5
sI5702
I5
sI4168
F3.5
sI842
I4
sI1108855
I0
sI334668
I3
sI44125
I0
sI6416
I0
sI10722
F3.75
sI17252
I0
sI543398
I2
sI9447
I3
sI4072
F4.5
sI42347
I0
sI764911
I4
sI1223152
F2.5
sI38001
F3.5
sI4469
I5
sI11561
F3.75
sI168569
I4
sI11387
F2.5
ssS'PowerCrazy'
p27
(dp28
I347907
F4.5
sI1057284
I4
sI278152
I3
sI388111
I4
sI563602
I2
sI1179027
F3.5
sI8686
F3.5
sI1065366
I4
sI27160
I4
sI807556
F3.5
sI434330
I3
sI1056668
I5
sI142064
F4.5
sI24231
F3.5
sI707954
F4.5
sI838063
I3
sI3121
I3
sI1071282
F3.5
sI958645
F4.5
sI983095
I4
sI25784
F3.5
sI1153725
F3.5
sI70974
I4
sI6965
F2.5
sI244297
I4
sI1166923
F3.5
sI1197666
I4
sI68048
I3
sI59860
F2.5
sI327638
I4
sI20567
F3.5
sI1161947
I4
sI360414
I3
sI763362
F3.5
sI5856
F3.75
sI11746
I4
sI1071205
F3.5
sI6631
I4
sI2025
I4
sI715115
F3.5
sI721518
F3.5
sI1090415
F3.5
sI773232
I3
sI513522
I4
sI164851
I4
sI1189622
F3.5
sI12649
I3
sI916180
I4
sI621310
I3
sI1195029
I4
ssS'Bdenzer'
p29
(dp30
I699009
F2.5
sI11266
I4
sI7427
I2
sI1540
I4
sI272406
F3.5
sI4488
I4
sI123662
I4
sI4589
F4.25
sI42128
F2.25
sI277522
F4.5
sI275839
I4
sI983956
F3.25
sI867605
F3.75
sI912790
I4
sI216409
F3.25
sI464409
F3.5
sI30
F3.5
sI131872
F4.5
sI5798
F3.75
sI4010
I3
sI5804
F4.5
sI821
I4
sI880312
F3.5
sI9657
F3.75
sI301756
F3.5
sI263103
I3
sI278596
F4.5
sI3784
F2.5
sI502219
F3.5
sI3916
F3.75
sI529747
I4
sI74073
F3.25
sI3834
F1.5
sI1092190
I4
sI119056
I4
sI36834
I4
sI6395
F3.5
sI50108
F3.5
sI362
F4.25
sI949099
F3.5
sI52332
F4.5
sI51053
F3.75
sI556676
F4.5
sI671988
F3.5
sI3811
F2.5
sI581444
F3.5
sI1023481
F3.5
sI499962
I2
sI3839
F3.5
sI8063
F3.25
ssS'BrettOmyces'
p31
(dp32
I1156480
F3.75
sI336895
F3.5
sI977525
I4
sI8211
I4
sI726689
F3.25
sI383772
F3.25
sI1033246
F3.25
sI1184032
F4.5
sI369441
F3.5
sI1142563
I4
sI395044
F3.5
sI530598
I5
sI59559
I4
sI1132969
F3.5
sI1007914
F3.75
sI807339
F3.75
sI1022765
F3.25
sI999982
F4.5
sI1051058
I5
sI133943
F3.5
sI772028
F3.75
sI3902
F3.75
sI1145077
F4.5
sI954110
F4.25
sI331458
F3.5
sI1123783
F3.5
sI1166536
F3.5
sI1093069
F3.75
sI1218259
F4.25
sI973670
F3.75
sI987719
I4
sI198745
F3.25
sI2011
F3.25
sI1159389
I5
sI571487
F4.25
sI728931
I4
sI4453
I3
sI235238
I4
sI1033576
F3.75
sI781162
I4
sI904430
F3.5
sI773232
I3
sI271348
F4.5
sI800757
I4
sI473207
F3.75
sI1144057
F4.25
sI1104762
F4.5
sI71328
F4.25
sI894
F3.5
sI295125
F3.75
ssS'CORLYLY'
p33
(dp34
I19459
I4
sI44678
F3.75
sI281665
F4.5
sI96140
F3.5
sI77581
F3.75
sI9230
F1.75
sI1137680
F3.5
sI821649
I4
sI1096595
F4.25
sI105390
F2.75
sI1069465
I4
sI44953
F3.75
sI95386
I3
sI1137327
F4.5
sI366492
I3
sI1069598
F3.5
sI331014
F2.5
sI1136293
F4.5
sI19240
I3
sI25628
I3
sI788140
F4.5
sI13938
F1.75
sI95406
F3.25
sI875695
F3.75
sI15154
F2.75
sI118453
F3.25
sI21178
I3
sI273341
F3.25
sI222273
F3.5
sI994974
F3.5
sI334665
F3.25
sI6732
I1
sI951650
F3.75
sI96596
F3.5
sI430734
I4
sI198232
F4.25
sI1178458
F4.5
sI231644
F3.5
sI55184
I3
sI749666
F3.75
sI1189988
F4.75
sI44903
F3.25
sI519016
F4.25
sI12647
I3
sI454293
I3
sI584744
F3.75
sI120946
F3.5
sI15990
F3.25
sI1022
F3.5
sI61205
F2.75
ssS'whisky_delta94'
p35
(dp36
I785793
F3.25
sI1206146
I5
sI8324
I3
sI4485
F3.5
sI120833
F2.75
sI3721
F2.75
sI357515
F3.5
sI3916
F2.75
sI1158799
I3
sI2329
F3.25
sI278596
F4.5
sI283
I4
sI1695
F4.5
sI198690
F2.5
sI863899
I3
sI518052
F4.25
sI285993
I3
sI232108
F2.5
sI4013
F3.75
sI230709
F3.25
sI49208
F3.25
sI15677
F3.25
sI594084
F2.75
sI7364
F3.5
sI4168
F4.25
sI6988
I4
sI867402
F4.25
sI15180
F3.75
sI602061
I3
sI90835
F3.75
sI1238
F3.25
sI74073
F4.5
sI1042437
F4.25
sI103773
F3.75
sI29919
I4
sI480
F4.25
sI1633
F3.25
sI1057517
F4.25
sI3558
I3
sI174055
F2.5
sI1165544
F4.25
sI519657
I4
sI5867
I0
sI31852
F3.75
sI51053
F2.75
sI10223
I3
sI916080
I4
sI82680
F3.75
sI800382
F3.5
sI7807
F2.75
ssS'zackinater65'
p37
(dp38
I8
I4
sI3977
F3.5
sI130571
I5
sI575244
I5
sI241298
F4.5
sI4888
F4.25
sI1172300
F4.5
sI4903
I4
sI623282
F3.5
sI6325
F3.75
sI867402
I5
sI10485
I5
sI156870
I4
sI201
I4
sI219082
I5
sI3916
F3.25
sI6863
F3.75
sI4178
I5
sI557011
I5
sI967132
I4
sI355322
F3.25
sI36834
I5
sI3942
F3.5
sI181608
F4.5
sI1104364
F3.25
sI6510
F3.5
sI4464
I4
sI4593
I5
sI1013
I4
sI4473
I5
sI781690
F4.5
sI8063
I4
ssS'Gortexsport'
p39
(dp40
I7808
F2.75
sI1095851
I4
sI705285
I3
sI55560
I2
sI24300
F4.5
sI10125
I3
sI11845
F4.75
sI5912
F3.5
sI7832
F3.25
sI6427
F3.25
sI4485
F2.75
sI10283
I4
sI1152035
F4.75
sI262308
F4.75
sI482343
F2.5
sI5672
F3.75
sI562219
I3
sI1146034
F3.25
sI47
F3.5
sI1118642
I4
sI18099
I4
sI355380
I4
sI1105589
F4.25
sI3770
I4
sI971879
F4.25
sI695996
F4.5
sI10050
I5
sI16581
F3.25
sI3784
F3.5
sI867402
F3.5
sI255308
I3
sI331215
F3.75
sI6481
F3.5
sI305362
F4.75
sI1199955
F4.5
sI236631
F4.25
sI74073
F0.5
sI19686
F3.75
sI3811
F2.25
sI3942
I4
sI59622
F3.75
sI103
F3.5
sI5180
F4.25
sI362
I3
sI10215
F3.75
sI408044
F2.5
sI3952
F3.5
sI175862
I4
sI470413
F4.25
sI3839
F3.5
ssS'njdev1l068'
p41
(dp42
I1004289
F3.5
sI499862
I3
sI1024010
I4
sI370059
I5
sI5262
F3.5
sI133008
F3.75
sI4498
F3.5
sI867605
F3.5
sI1065366
F3.5
sI686809
F3.5
sI877231
I4
sI62749
F4.5
sI556319
I4
sI952360
F3.5
sI943789
F3.25
sI956206
I4
sI1071
I4
sI787632
F4.5
sI179249
F4.5
sI16434
F4.75
sI844852
F3.5
sI856504
I4
sI292923
I4
sI699914
I4
sI371391
F4.5
sI982722
F3.5
sI10251
I4
sI1049925
F4.5
sI1039559
F4.5
sI457678
I4
sI666066
F3.5
sI1074261
I5
sI74073
F3.75
sI177243
I3
sI331485
F4.5
sI961246
F3.5
sI1163109
F4.75
sI567952
I4
sI16955
F3.5
sI1048677
I5
sI329322
F4.5
sI1037420
I3
sI657647
I5
sI291828
I4
sI808823
I3
sI104059
I5
sI568188
I3
sI750461
F4.5
sI913150
F3.5
sI106751
I4
ssS'Stingray22'
p43
(dp44
I1409
F1.75
sI642
F2.75
sI8453
I4
sI13451
F3.25
sI38700
F2.5
sI723339
F2.25
sI9488
F3.5
sI40593
I4
sI25236
F0.25
sI609301
F0.5
sI10519
I4
sI207899
I2
sI262545
F3.75
sI290
I2
sI18083
F3.5
sI40471
I2
sI8745
F2.75
sI81068
I1
sI389681
F3.5
sI687475
I3
sI5940
I1
sI1589
F2.5
sI16313
I3
sI14906
I4
sI76731
F3.25
sI495809
F3.25
sI54467
F2.25
sI36212
F2.5
sI4172
F3.25
sI176333
F3.5
sI1064270
F3.25
sI159569
I2
sI32722
I2
sI5845
I3
sI34134
F2.5
sI9657
F1.75
sI270681
I2
sI933594
F3.25
sI337629
F3.5
sI7520
F3.5
sI21857
F1.5
sI17252
F3.5
sI380625
F0.75
sI7018
I4
sI451823
F2.25
sI5875
F3.25
sI1101044
F3.75
sI483317
F1.25
sI665194
F3.75
sI800895
I3
ssS'joek159'
p45
(dp46
I1126758
F3.5
sI49132
I3
sI699914
F3.75
sI5133
I3
sI224399
F3.75
sI33040
I3
sI1045265
F3.75
sI8978
F3.5
sI247571
F3.5
sI985876
F3.5
sI1710
I0
sI58008
I5
sI56829
F4.5
sI10525
F3.25
sI696735
I3
sI1186979
F3.5
sI1102116
I3
sI73130
I3
sI5191
F3.5
sI882221
F3.5
sI913710
F3.5
sI5040
F3.5
sI6451
F3.5
sI467766
I3
sI9954
F3.5
sI4669
I3
sI21978
F3.5
sI1016769
I3
sI53814
I3
sI5318
F3.5
sI5319
F3.5
sI1083980
I3
sI307298
I4
sI1036885
F3.5
sI855126
F3.75
sI1164887
F3.75
sI13018
F3.25
sI196059
I3
sI1179360
F3.75
sI36834
F3.5
sI770148
F3.5
sI1186995
F3.5
sI59622
F3.5
sI10215
F3.5
sI1127
I4
sI65644
I4
sI95981
F3.5
sI18237
F3.5
sI11818
I3
sI55807
I3
ssS'bearclawska42'
p47
(dp48
I349397
I4
sI9346
I4
sI975107
F4.75
sI201860
I4
sI284167
F3.75
sI602760
I4
sI6539
F4.5
sI123662
I4
sI18063
F3.75
sI241298
I5
sI571413
F4.25
sI4887
I5
sI355483
F3.75
sI4509
F4.25
sI553630
F3.5
sI646818
I3
sI4133
F4.75
sI317735
I4
sI392748
I3
sI431
F3.75
sI223
I3
sI8266
F3.5
sI46197
I4
sI2240
F4.5
sI498016
F4.5
sI268742
F4.25
sI613833
F3.5
sI867402
I4
sI6347
F4.75
sI3916
F4.5
sI219341
F4.5
sI567502
I4
sI602319
F4.25
sI685781
F3.5
sI1062742
I5
sI882783
F4.25
sI4960
I4
sI1116515
F3.5
sI3558
F3.25
sI971879
F3.5
sI1021545
F3.5
sI600426
I4
sI468331
F3.5
sI295276
I4
sI3955
F3.5
sI8949
F4.25
sI424951
I5
sI8056
F4.75
sI912763
I4
sI7679
F3.5
ssS'Aggggbeer'
p49
(dp50
I6585
I4
sI975878
F3.5
sI670985
F3.5
sI629393
F2.5
sI916500
F3.75
sI319765
F4.5
sI912790
F3.25
sI509592
F3.75
sI18713
I3
sI95386
F3.75
sI4508
F3.25
sI509598
F4.5
sI314529
I4
sI646818
F4.75
sI419
F3.25
sI10021
F4.25
sI4134
F3.5
sI699049
F3.75
sI155824
F0.25
sI1456
F3.75
sI673586
I3
sI8372
F4.25
sI917045
F4.5
sI785462
I3
sI99128
F3.25
sI355380
I5
sI28476
F4.5
sI364477
F3.5
sI52671
I4
sI83904
F3.75
sI591298
F3.25
sI11844
I4
sI499141
I4
sI47431
F3.25
sI992968
F2.5
sI1353
F3.25
sI113889
I5
sI2893
F3.25
sI226514
F2.5
sI897364
F3.25
sI983511
I3
sI21978
F4.5
sI1182941
F4.5
sI714081
I2
sI21860
I4
sI71782
I3
sI59622
F3.75
sI555900
I5
sI707954
I5
sI6652
F3.75
ssS'MichaelOlesen'
p51
(dp52
I594306
F2.75
sI371716
F4.25
sI502533
F3.5
sI161801
I3
sI862602
F2.75
sI961036
F2.5
sI118925
F0.25
sI404110
F3.5
sI445844
I3
sI157081
F3.75
sI195866
I2
sI95386
F3.5
sI2247
I3
sI334112
F0.75
sI408227
F3.75
sI1209383
F2.75
sI10154
F3.25
sI1707
F2.75
sI1154476
F3.5
sI171821
F3.5
sI116228
F2.75
sI946096
F3.25
sI712370
F0.75
sI360499
F3.25
sI1179573
F3.5
sI430011
F1.5
sI87754
F2.5
sI617440
F3.75
sI1083587
F2.5
sI1031108
F3.25
sI960069
F3.25
sI440545
F1.5
sI1154506
I3
sI208203
F3.5
sI76748
F1.25
sI1042639
F3.5
sI32722
F2.5
sI492248
F3.25
sI669785
F3.75
sI1167962
F3.75
sI299741
F2.75
sI18526
F0.25
sI976352
F2.75
sI874593
F2.75
sI1180521
F2.75
sI809004
F2.75
sI30450
F3.5
sI198262
I4
sI1152759
F3.25
sI84396
F3.5
ssS'Hunnie'
p53
(dp54
I725506
F2.5
sI16774
F4.75
sI762123
F3.5
sI914702
I4
sI1110927
F2.75
sI201745
I4
sI649877
I3
sI1026966
I4
sI971287
I0
sI1198360
I2
sI6683
I4
sI127388
F1.75
sI52127
F4.25
sI1171824
F3.5
sI1076133
F2.5
sI477095
I4
sI551998
F3.75
sI494124
F4.5
sI619696
F3.25
sI1067080
F2.5
sI25843
I4
sI609204
F2.75
sI54089
F3.25
sI1059642
F3.75
sI875451
F4.5
sI1094332
F3.75
sI1215165
F2.5
sI939582
F2.75
sI6732
I4
sI6467
F4.5
sI651973
I3
sI375750
F3.5
sI934088
I3
sI678601
F1.75
sI1165004
F3.75
sI1094352
F3.25
sI1164887
F4.25
sI42694
F4.5
sI442554
F4.75
sI28384
I4
sI1197539
F3.25
sI5476
I4
sI1033576
I4
sI892779
F2.5
sI812271
I4
sI897392
F3.75
sI305779
I2
sI1164789
I4
sI13560
F4.5
sI1185406
F2.75
ssS'd_Q'
p55
(dp56
I1170688
F2.75
sI4996
F3.75
sI5382
F3.25
sI1149703
F2.25
sI5384
F2.5
sI65547
F3.25
sI24312
F2.75
sI406125
F3.25
sI1171791
F3.25
sI1216541
F3.5
sI9377
F3.75
sI149666
I3
sI202788
F2.5
sI387621
F3.25
sI290472
I4
sI4010
I3
sI5383
F3.25
sI602673
F3.25
sI841266
F3.75
sI1213755
I2
sI1179964
I2
sI1213757
I2
sI600895
I3
sI1117704
I3
sI5190
F3.25
sI571847
F2.75
sI785736
I1
sI4589
F4.25
sI1216335
F3.75
sI989905
F2.5
sI6226
F2.75
sI3553
F2.5
sI594084
F1.25
sI2447
F3.5
sI1210077
F0.25
sI1162206
I3
sI1136293
F3.5
sI8928
F3.25
sI1028065
F1.75
sI87227
I3
sI1076454
F2.5
sI428266
F3.25
sI24300
F2.5
sI1175149
F2.75
sI820349
I3
sI1059832
I1
sI45306
I4
sI38779
F2.75
sI676650
F3.25
sI8062
F3.5
ssS'Anderstorp'
p57
(dp58
I19459
F3.75
sI702343
F3.5
sI9644
F3.75
sI987658
F3.75
sI1025676
F4.25
sI46865
I4
sI1154706
F4.25
sI1939
F3.75
sI27156
F3.25
sI83093
F4.25
sI923
I3
sI463777
F3.75
sI43163
I3
sI1170982
F3.75
sI972327
F4.25
sI99370
F3.75
sI43
F4.25
sI1023276
I4
sI1224110
I3
sI97071
F3.75
sI878707
I3
sI26164
I3
sI911881
I4
sI268216
I3
sI1044155
F4.25
sI239552
F2.75
sI20801
F3.5
sI6725
I3
sI40139
F2.75
sI1059150
F3.25
sI1170769
I4
sI763604
F3.75
sI263374
F3.75
sI298584
I3
sI17113
F3.75
sI955358
F3.5
sI625813
I4
sI4705
I3
sI1101925
I3
sI308462
I3
sI170352
I4
sI64242
F3.25
sI615155
I4
sI23542
F3.5
sI1132536
F4.5
sI17748
F3.5
sI663163
F3.5
sI859516
F3.25
sI663165
I4
sI7935
F3.5
ssS'Dayo-Pops'
p59
(dp60
I132097
I4
sI11266
F3.25
sI1004038
I4
sI344199
I4
sI1076106
F3.25
sI1136011
F3.5
sI22676
I3
sI912790
I4
sI678425
I4
sI153503
F3.75
sI585249
F3.75
sI1143461
F3.75
sI468518
F3.75
sI690472
F3.5
sI170
I4
sI1096875
I4
sI392748
F3.5
sI1017330
F3.25
sI4910
F3.5
sI12079
F3.25
sI883635
F3.25
sI5428
F4.25
sI1589
F3.5
sI1121010
F4.25
sI361530
F3.75
sI29279
F3.75
sI1027573
I4
sI1186625
F3.75
sI859333
F4.5
sI1172934
F3.75
sI1092172
F4.25
sI140365
F3.75
sI673363
F3.5
sI40278
F3.5
sI348760
F3.75
sI1246
F4.25
sI372453
F3.75
sI658784
F3.75
sI511589
F4.25
sI632040
F3.75
sI1104124
I4
sI225261
F3.75
sI308462
F4.25
sI4719
I4
sI24433
F3.25
sI4594
I4
sI1059317
F4.5
sI28662
F4.25
sI263401
I4
sI8572
F3.5
ssS'ChadNewsBears'
p61
(dp62
I975107
F2.5
sI11268
F3.75
sI4997
I2
sI636943
I5
sI8056
F3.5
sI1087507
F2.75
sI939924
I4
sI867605
F3.75
sI499862
I1
sI95386
F4.5
sI629533
I3
sI5445
F3.75
sI221728
F3.5
sI10018
F2.75
sI354981
I1
sI4010
F2.75
sI5804
F3.25
sI63154
F4.25
sI139446
I4
sI50872
F3.75
sI823482
I3
sI369951
F3.5
sI161344
F3.5
sI6725
I3
sI27974
F3.75
sI3787
I4
sI285026
I3
sI202318
I4
sI32463
F3.5
sI30648
I1
sI5714
F2.75
sI687318
I3
sI22363
F3.5
sI1043165
I1
sI4133
F3.25
sI342498
F3.5
sI3692
F2.5
sI27501
F3.75
sI707183
F3.5
sI4464
F3.5
sI991348
F2.5
sI504309
F4.5
sI3830
F4.5
sI82680
I4
sI4473
F3.5
sI568188
F3.5
ssS'JewbaccaSTG'
p63
(dp64
I606211
I4
sI1030230
F3.5
sI23814
F3.5
sI23175
F3.5
sI13961
F4.25
sI558219
I4
sI9283
F4.5
sI127388
F4.25
sI796573
F3.5
sI1045411
I4
sI815527
F3.5
sI29100
I4
sI1062647
F3.25
sI19510
F3.5
sI690295
F3.75
sI8380
F3.5
sI5437
F3.75
sI7998
I3
sI1179360
F4.5
sI7747
F2.75
sI429508
I4
sI107333
I3
sI60614
F3.5
sI6775
I3
sI532814
F3.5
sI96975
F1.25
sI7377
I2
sI75858
F3.5
sI5972
F3.5
sI26709
F3.5
sI600150
I4
sI378724
F3.5
sI731
I3
sI1086304
F3.5
sI958011
I4
sI444644
F3.5
sI1203557
F3.5
sI29286
F3.5
sI356840
I3
sI184553
F3.5
sI315218
I4
sI4847
F3.5
sI3825
I3
sI37874
F3.5
sI10740
I4
sI8821
F3.5
sI24951
F4.5
sI31993
F3.75
sI16636
F1.25
sI666453
F3.5
ssS'Pigmans'
p65
(dp66
I38656
I3
sI374151
F3.25
sI73224
F3.75
sI93420
F3.5
sI44810
F3.25
sI1108877
F1.5
sI151056
F3.75
sI1193617
I0
sI5650
I3
sI1221526
I4
sI337691
F3.25
sI1201105
I0
sI26531
F3.25
sI33702
F3.5
sI363047
I0
sI352051
F1.75
sI45159
F1.5
sI25784
I3
sI1098871
F3.25
sI35642
F3.25
sI38695
I2
sI451403
F3.5
sI7364
F3.5
sI642885
F3.5
sI47816
F3.25
sI4681
F3.75
sI1213003
F3.5
sI17810
F1.5
sI64593
F3.25
sI96723
F3.5
sI107477
F3.5
sI745302
F2.75
sI76665
F3.25
sI1193560
I0
sI169434
I3
sI45917
F3.5
sI7520
F3.5
sI105700
F3.25
sI181478
I3
sI353361
F3.5
sI769959
F3.25
sI12268
F3.25
sI54509
F2.5
sI9711
F3.25
sI1077246
I4
sI84089
F2.5
sI796409
F3.5
sI29306
I3
sI120187
I2
sI152062
F3.25
ssS'HopsCanary'
p67
(dp68
I327936
F3.5
sI8065
F3.75
sI1161091
F3.5
sI8324
F3.5
sI1074693
F3.5
sI5768
I3
sI810484
F4.25
sI974864
I4
sI117141
F3.5
sI287127
F3.75
sI840623
F3.5
sI127388
F3.5
sI457504
F3.25
sI1183009
I4
sI1213219
F3.5
sI1206440
I3
sI681769
F3.25
sI111659
F3.5
sI11357
F4.75
sI1189682
F3.25
sI2743
F3.5
sI659129
F3.75
sI1149759
I4
sI1123783
I4
sI1154505
F4.25
sI5322
F3.5
sI1078455
F3.75
sI1078605
F3.25
sI310990
F3.25
sI1088975
F3.5
sI574418
I4
sI882211
I4
sI889947
I3
sI1182941
I3
sI893024
I4
sI1214049
F3.5
sI450917
I4
sI1191399
F3.75
sI1165416
F3.75
sI5737
F3.25
sI389842
I3
sI105070
I4
sI89332
F3.75
sI952821
I4
sI1229175
F3.5
sI65785
F4.5
sI967419
F3.75
sI310780
I4
sI775037
F3.5
sI1136789
F3.5
ssS'ObiWalnut'
p69
(dp70
I1114502
F4.25
sI28552
I4
sI1132681
I4
sI646035
I4
sI23022
F4.25
sI1004953
F3.5
sI216217
F3.5
sI6683
F3.75
sI127388
I4
sI871676
F3.75
sI19359
F4.25
sI4144
F4.25
sI876582
F3.75
sI423
F3.75
sI15658
F3.25
sI9392
F3.75
sI623281
F3.25
sI5940
F3.75
sI31284
F3.75
sI806588
I4
sI607038
F3.75
sI547519
I4
sI833
F3.5
sI6911
F3.5
sI63816
F3.75
sI6860
I4
sI3959
F3.25
sI14796
F3.25
sI100558
I4
sI387407
F3.75
sI4179
F3.75
sI779862
F3.75
sI1179607
I4
sI285658
F3.5
sI5724
F4.25
sI6493
F3.75
sI285026
F3.5
sI681828
F3.25
sI17513
I4
sI4971
F3.75
sI4590
F3.5
sI3952
F3.75
sI808818
F3.75
sI21364
I4
sI8949
F3.5
sI311159
F3.5
sI35320
F3.75
sI106751
I4
sI687228
F3.5
sI55807
I4
ssS'dj11burk'
p71
(dp72
I1041537
F3.75
sI445956
F3.75
sI959233
I4
sI1034888
F3.75
sI673546
F3.25
sI895244
F3.5
sI1050285
F3.25
sI602768
F4.25
sI969363
F3.75
sI77735
I4
sI993691
F3.5
sI127388
F3.75
sI1120030
I4
sI1034625
F3.75
sI1143461
F3.75
sI5158
I4
sI976551
F4.25
sI1023276
F3.5
sI4013
F4.25
sI745906
F4.25
sI741150
I4
sI1033783
F3.25
sI1096895
F3.75
sI215745
I4
sI1166923
F4.25
sI1092172
F3.25
sI1119569
F4.25
sI573910
F3.75
sI496471
I3
sI42128
I4
sI992477
F3.75
sI112350
F4.5
sI21857
I4
sI36834
F3.75
sI546659
F3.75
sI3557
I4
sI44369
F3.75
sI9833
F3.5
sI1032810
F4.5
sI155431
F4.25
sI511596
F3.75
sI355358
F2.75
sI330480
F3.75
sI1007217
I4
sI13428
I4
sI863646
I4
sI367209
F3.25
sI3834
F0.75
sI414399
F3.5
sI913150
F3.5
ssS'colinjcooper'
p73
(dp74
I695299
I4
sI1129092
F3.25
sI654602
F3.25
sI1083863
F3.75
sI12816
I3
sI1194514
I4
sI559619
F3.25
sI1028631
F3.75
sI1146648
F2.75
sI220612
F3.5
sI4890
I3
sI80930
F3.75
sI202788
I3
sI1136293
I4
sI314406
F4.25
sI1145128
F3.25
sI953386
F3.25
sI943789
I3
sI1182941
I4
sI364850
I4
sI960294
F3.75
sI1145268
F3.5
sI2870
F3.5
sI219320
F3.5
sI6585
F3.5
sI748990
F3.75
sI877505
F3.25
sI252355
F3.5
sI199620
F3.75
sI375365
I4
sI1145160
F3.75
sI365129
F3.5
sI455886
I4
sI1171791
F3.25
sI262308
F3.5
sI622929
F3.25
sI1126357
F3.75
sI376407
I4
sI74073
F3.5
sI623963
F4.25
sI13788
F2.5
sI703197
F3.75
sI677349
F3.75
sI12522
F3.75
sI44953
F3.75
sI2165
F3.25
sI707959
F3.25
sI14201
F2.75
sI718586
F3.75
sI900053
I4
ssS'Interdependence'
p75
(dp76
I1156480
F2.5
sI19459
F3.75
sI27524
I2
sI23175
F3.25
sI18099
I3
sI8073
I4
sI3853
I1
sI123662
F4.25
sI9488
F2.75
sI298328
I4
sI57748
F2.75
sI560917
I3
sI10519
I3
sI75416
F1.75
sI378266
I4
sI5659
F3.5
sI127388
F4.25
sI4899
F2.25
sI1572
F3.75
sI4134
F3.5
sI231580
F2.5
sI344199
F2.75
sI355884
I3
sI536627
F3.5
sI821
I3
sI5558
F2.75
sI9144
F3.25
sI55334
F2.75
sI43711
I3
sI8731
I5
sI6310
F2.5
sI7243
F3.5
sI5445
F3.25
sI4043
F3.75
sI6988
I4
sI142032
I4
sI11473
F4.5
sI851
F4.5
sI30855
I4
sI48732
F2.5
sI790245
F4.5
sI349152
F3.5
sI481
F4.5
sI4453
F4.25
sI1382
I3
sI280679
I3
sI9198
F3.5
sI634994
F3.5
sI8056
F4.25
sI3963
F3.75
ssS'Pandaboy95'
p77
(dp78
I7520
I4
ssS'Sevante'
p79
(dp80
I975107
I2
sI172036
F3.5
sI450312
I3
sI207020
F3.5
sI5132
F3.5
sI552845
I4
sI2447
I3
sI7747
F1.5
sI912790
F4.5
sI127388
I4
sI467619
F3.5
sI19364
I3
sI3878
I4
sI58871
F2.5
sI29096
F4.5
sI894761
I4
sI403371
F3.5
sI1070892
I4
sI431
I3
sI841139
F2.5
sI5428
F4.5
sI338358
I5
sI825657
F4.5
sI17722
I4
sI923712
I3
sI10291
I3
sI3787
I4
sI806852
F3.5
sI5558
I0
sI421835
F3.5
sI6348
F2.5
sI770637
I4
sI11470
I4
sI79053
I4
sI1079339
I4
sI555987
I4
sI660308
F4.5
sI128341
I3
sI981847
I3
sI199642
I4
sI349152
F2.5
sI18598
I2
sI637416
F3.5
sI12366
I3
sI3562
I2
sI3700
F2.5
sI16630
I4
sI7799
F3.5
sI48253
F3.5
sI2773
F3.5
ssS'Jeschkex5'
p81
(dp82
I783489
F4.5
sI884740
I0
sI294291
I5
sI318741
I3
sI126173
I5
sI257308
F4.5
sI1079589
I5
sI482343
F3.25
sI1163548
I5
sI4143
F4.75
sI888627
I4
sI883054
I4
sI198714
I5
sI279360
F4.75
sI769473
I3
sI867402
I5
sI1182941
F3.5
sI338773
F4.25
sI1129048
I5
sI232794
F3.5
sI213084
F3.75
sI1206621
F3.5
sI1382
I5
sI428266
F4.5
sI3950
F4.25
sI973040
I5
sI85745
I5
sI8056
I4
sI424316
F4.25
sI97663
I4
ssS'Katiekao27'
p83
(dp84
I6400
I5
sI120833
I0
sI7044
F4.5
sI85910
I4
sI6791
I4
sI21768
I0
sI560908
I0
sI470413
I3
sI1016338
I5
sI6723
I0
sI144918
I5
sI719492
I5
sI10010
I0
sI127388
I5
sI4509
I4
sI560420
I4
sI18545
I5
sI678696
I5
sI85916
I5
sI48170
I3
sI4978
I4
sI5038
I5
sI31284
I5
sI1353
I4
sI819640
I4
sI131260
I5
sI361534
I5
sI6720
I5
sI7875
I0
sI25796
I5
sI716615
I5
sI6729
I5
sI5834
I5
sI3916
I4
sI5968
I0
sI444121
I5
sI456410
I5
sI697441
I4
sI36834
I5
sI5862
I5
sI971879
I5
sI5180
I5
sI6119
I5
sI8172
F3.5
sI285658
I4
sI4594
I5
sI808818
I4
sI808823
I5
sI694904
I3
sI6524
I5
ssS'Jzych1'
p85
(dp86
I32167
F4.25
sI867402
F4.25
sI3787
F4.5
sI528045
F3.75
sI1090350
F2.5
sI5391
F4.75
sI3952
I4
sI3985
I4
sI1047283
I0
sI1138100
I3
sI685781
F3.25
sI8056
I5
sI4473
F4.75
sI8027
F4.25
sI5756
F3.5
sI121023
F4.5
ssS'motherofallbeers'
p87
(dp88
I719495
F4.5
sI92565
I4
sI2714
I4
sI11931
F3.5
sI6687
I5
sI24675
I3
sI958247
I4
sI30855
F4.5
sI876334
I4
sI459831
I5
sI50621
I4
sI945607
I3
sI4691
I5
sI856155
I5
sI904798
F2.75
sI29279
F3.5
sI6755
I4
sI4589
F4.75
sI308462
I4
sI37235
F3.5
sI1041146
I4
sI248316
I3
ssS'EvoX'
p89
(dp90
I963971
F4.25
sI1540
F3.75
sI12935
I4
sI5132
F3.5
sI495120
F2.75
sI14482
I4
sI126867
I3
sI25796
I4
sI84251
F3.25
sI127388
F4.5
sI212637
F3.5
sI8240
I4
sI44699
F3.5
sI3622
F3.75
sI30855
I4
sI4509
F3.25
sI5040
F3.25
sI360414
I3
sI6583
F3.75
sI3776
F4.25
sI994881
F3.75
sI149827
I3
sI5060
I4
sI867402
I4
sI4172
F3.25
sI1507
I4
sI3587
F3.5
sI4178
F4.25
sI4179
F4.25
sI213
I3
sI856918
F3.25
sI1164887
F3.5
sI285658
F3.75
sI11002
I3
sI1246
F2.75
sI204896
F3.75
sI285026
I3
sI6395
F3.75
sI14564
I4
sI697126
F3.5
sI2025
F3.75
sI766444
F3.5
sI8821
I4
sI82680
F3.5
sI399609
I4
sI45306
F3.25
sI3963
F3.5
sI4476
F3.5
sI5374
I4
sI393471
F4.75
ssS'Mofrak88'
p91
(dp92
I1164736
I3
sI4995
I1
sI1136388
I4
sI4743
F2.5
sI24713
F3.75
sI1161610
I4
sI5519
I2
sI855185
F2.5
sI623508
I3
sI1084442
I4
sI1160687
I4
sI1021340
I3
sI1138202
I5
sI5117
I3
sI1118117
F3.75
sI18598
I3
sI1206823
I3
sI4487
I4
sI82680
I3
sI1456
I4
sI623542
I3
sI572730
I4
sI41403
F2.5
sI36924
I2
sI3776
I3
sI131265
I3
sI8263
F3.5
sI3787
F2.5
sI1128908
F2.25
sI1206863
I4
sI71761
F3.75
sI4179
I4
sI8020
F2.5
sI1092441
I4
sI340315
I2
sI36834
I3
sI1192507
F3.75
sI414573
F2.75
sI2153
I2
sI428266
F3.25
sI77548
F2.5
sI960109
F3.25
sI4847
F2.5
sI1079793
I4
sI120946
I2
sI4469
I4
sI763256
F1.75
sI1138044
F3.25
sI1175018
I4
sI129151
I1
ssS'Chard4'
p93
(dp94
I129
F2.75
sI849794
F2.75
sI7044
F4.75
sI63752
F3.75
sI643977
I3
sI5591
I3
sI701836
F4.25
sI127388
I5
sI41501
F4.5
sI1173407
F4.5
sI1034785
F3.25
sI1111714
I5
sI53979
F3.75
sI976551
F3.5
sI62633
I3
sI8057
F3.5
sI527536
F2.75
sI556978
F2.5
sI72628
F3.5
sI6585
F4.25
sI730042
I3
sI858655
F3.25
sI50108
F4.75
sI6977
F4.25
sI1140419
I5
sI71307
F4.25
sI979654
F4.75
sI1067080
F3.25
sI867402
I5
sI1088975
I5
sI806226
I4
sI347859
I3
sI719
I3
sI285658
I5
sI623963
I5
sI70236
F3.25
sI671582
F3.5
sI13135
F4.5
sI9827
F3.25
sI59622
F2.75
sI1207654
F3.5
sI2025
F4.25
sI48878
I3
sI493556
I4
sI494761
F3.75
sI1096057
F3.5
sI1189455
F3.75
sI568188
F4.25
sI5839
F3.25
sI601215
I2
ssS'El_Boracho'
p95
(dp96
I8833
I0
sI5528
I0
sI4487
I0
sI19594
I0
sI13070
I0
sI11279
I0
sI2321
I0
sI8596
I0
sI5271
I0
sI5272
I0
sI5275
I0
sI65058
I0
sI17188
I0
sI13861
I0
sI91434
I0
sI688
I0
sI94534
I0
sI13491
I0
sI694
I0
sI4664
I0
sI43066
I0
sI192955
I0
sI85308
I0
sI6847
I0
sI51140
I0
sI779062
I0
sI31174
I0
sI137289
I0
sI6730
I0
sI311799
I0
sI6105
I0
sI1242
I0
sI20713
I0
sI29148
I0
sI13277
I0
sI91334
I0
sI76515
I0
sI4709
I0
sI311784
I0
sI62057
I0
sI9636
I0
sI308462
I0
sI56573
I0
sI49395
I0
sI24438
I0
sI7671
I0
sI66168
I0
sI7674
I0
sI30715
I0
sI21373
I0
ssS'Batmann'
p97
(dp98
I764409
I1
sI6277
F3.25
sI217990
F3.25
sI778123
I3
sI1191822
I3
sI311568
F4.75
sI355221
I4
sI795543
I2
sI1042330
F4.25
sI716143
F3.5
sI95386
I4
sI52897
I3
sI559010
I4
sI1008678
I2
sI162215
F3.75
sI1177647
I4
sI310064
F2.75
sI852275
I3
sI242743
F2.75
sI25784
I5
sI1205952
F3.75
sI161475
I3
sI1128516
F2.5
sI673398
F3.25
sI1137862
I3
sI904392
F4.75
sI1028130
I2
sI771152
F2.75
sI776658
I3
sI24675
F3.75
sI960086
F2.75
sI1007609
I4
sI8697
I4
sI939356
I3
sI781690
I4
sI1198430
F3.75
sI629072
I5
sI602211
F3.25
sI358
F3.5
sI32488
I4
sI273455
F3.25
sI593885
I3
sI1160687
I5
sI52593
I4
sI1189622
F2.75
sI6775
F3.75
sI763256
F2.25
sI1125753
F0.5
sI8314
I4
sI913150
F3.5
ssS'Ruralhippie'
p99
(dp100
I183552
F2.5
sI2178
F2.75
sI3587
I3
sI7044
I3
sI1050503
I3
sI1006472
F3.5
sI6410
I3
sI3351
F2.5
sI6540
I2
sI43650
F2.75
sI5519
F2.25
sI916500
F3.25
sI45335
I3
sI624025
I2
sI984794
F2.5
sI553630
I3
sI886823
F3.25
sI984361
F2.25
sI4010
F1.5
sI733099
I2
sI987694
F2.75
sI3377
F3.25
sI844851
F3.25
sI84279
F2.75
sI7611
F0.25
sI450748
F3.5
sI1042366
I3
sI3776
I3
sI53187
F2.5
sI993351
F2.75
sI867402
I4
sI3916
F2.75
sI457678
F3.5
sI899960
F0.5
sI1065683
F2.5
sI35414
I3
sI396441
F2.5
sI9817
I3
sI5850
F2.25
sI103773
I3
sI7520
F2.25
sI621154
F2.75
sI809700
I3
sI4590
F2.75
sI594288
I3
sI8820
F2.5
sI8745
F2.75
sI5880
F2.5
sI916
F1.5
sI408955
I3
ssS'Etgale'
p101
(dp102
I790787
I0
sI444121
I0
sI543751
I0
sI16649
I0
sI641423
I0
sI172056
I0
sI885012
I0
sI144918
I0
sI74073
I0
sI5912
F3.5
sI497049
I0
sI347375
I0
sI127388
I0
sI269469
I0
sI17568
I0
sI84251
I0
sI41768
I0
sI3881
I0
sI905130
I0
sI862169
I0
sI468331
I0
sI3914
I0
sI176962
I0
sI25668
I0
sI156870
I0
sI867402
I0
sI1078219
F4.25
sI3916
I0
sI686801
I0
sI382755
I0
sI4052
I0
sI1238
I0
sI812889
I0
sI285658
I0
sI2016
I0
sI405755
I0
sI71016
I0
sI4971
F3.5
sI4078
I0
sI1160687
I0
sI144753
I0
sI671988
I0
sI301685
I0
sI8566
I0
sI763476
I0
sI226555
I5
ssS'swait6585'
p103
(dp104
I418433
I2
sI1136388
F3.5
sI78981
F2.25
sI5249
F2.5
sI1161610
I4
sI130571
F3.5
sI71053
F2.5
sI376209
F3.5
sI1192507
F3.5
sI623508
I3
sI728366
F2.5
sI1084442
I4
sI717083
I2
sI2716
I3
sI21156
I3
sI78983
F3.5
sI4743
I2
sI978606
F2.5
sI1182941
I3
sI623542
F2.5
sI12346
F2.5
sI62523
I3
sI39740
F2.5
sI124349
F3.5
sI183360
F3.5
sI131265
I3
sI783489
I2
sI1128908
I2
sI6348
I2
sI1092441
I4
sI340315
F2.25
sI572730
I4
sI1008607
I3
sI1212897
F2.5
sI41403
I2
sI3813
F2.5
sI14353
F2.5
sI428266
F3.5
sI976620
I3
sI960109
I3
sI408957
I3
sI1079793
I4
sI120946
F2.5
sI318710
I3
sI13559
I3
sI871679
F3.5
sI1138044
I3
sI1175018
I4
sI86014
I3
sI129151
I1
ssS'MarkKubs'
p105
(dp106
I1044097
F4.5
sI562219
I4
sI196100
I3
sI395910
F4.5
sI743809
F4.25
sI73225
F4.25
sI7820
I4
sI2577
F3.5
sI374290
F4.5
sI1048342
F4.5
sI505002
F4.5
sI623513
F4.75
sI734363
I4
sI1023518
F4.75
sI759201
I0
sI63643
I4
sI1071272
F3.25
sI418474
F3.5
sI1066923
F4.25
sI999854
F4.25
sI1094063
F4.25
sI70581
F4.5
sI12988
F4.5
sI4541
F3.5
sI613696
F4.5
sI18625
F3.5
sI5058
I4
sI17860
F4.25
sI629831
F4.25
sI267851
F4.25
sI123854
F4.5
sI7249
F4.5
sI382292
F4.25
sI1238
I5
sI569560
I5
sI21857
I4
sI1179747
F4.5
sI556260
F4.5
sI511589
F4.5
sI36945
F4.5
sI2153
I0
sI428266
F3.75
sI2155
F4.25
sI719105
I4
sI66800
I4
sI704641
I5
sI13561
I5
sI718586
I5
sI4010
I2
sI574718
F4.75
ssS'Fest-of-Ale'
p107
(dp108
I832515
F2.25
sI1221382
F2.75
sI8073
I4
sI49675
F3.5
sI562828
F3.75
sI702620
F2.5
sI933141
I4
sI408
F3.75
sI1128516
F3.75
sI1205020
F2.25
sI10309
F2.5
sI12197
F3.75
sI762665
I3
sI140330
F3.75
sI1051697
I3
sI8372
I4
sI862473
F3.5
sI50108
F3.5
sI281665
I4
sI8002
F3.25
sI20676
F2.5
sI257526
F2.75
sI156870
F2.25
sI732231
F2.5
sI1166412
F3.5
sI13003
F2.75
sI988620
F2.5
sI129488
F3.25
sI130001
F2.75
sI305362
F3.75
sI555987
I3
sI368724
I0
sI800855
I2
sI6105
F3.75
sI232794
F3.75
sI722780
F3.75
sI921444
F3.5
sI450917
F4.25
sI59622
F3.75
sI201542
F3.75
sI3948
I3
sI860909
F3.75
sI779247
I3
sI170352
F3.25
sI1188468
F2.25
sI515701
F3.75
sI1210870
I3
sI153335
F2.75
sI153336
F3.25
sI1062269
I3
ssS'scotsman1973'
p109
(dp110
I8192
I3
sI975619
I4
sI20484
F2.5
sI24031
I3
sI10119
I3
sI908
I3
sI522516
I4
sI110870
I4
sI5660
I3
sI5661
I3
sI4512
I3
sI41250
I2
sI419
I3
sI126757
F2.5
sI11046
I2
sI29225
I3
sI155052
I3
sI5424
I3
sI8369
I2
sI4662
I3
sI627512
I3
sI6388
I3
sI249402
F3.5
sI15931
I3
sI104383
F2.5
sI1089088
I4
sI5441
I3
sI178503
I3
sI301640
I3
sI5583
I3
sI196689
I3
sI67163
I3
sI11357
I3
sI23134
I3
sI15967
I3
sI312547
I3
sI91108
I3
sI348392
I3
sI879100
I3
sI89195
F4.5
sI104046
I3
sI4847
I3
sI669040
I3
sI144753
F2.5
sI89332
I3
sI896248
I3
sI6138
I3
sI104059
F2.5
sI10620
I3
sI342525
I3
ssS'efegursoy'
p111
(dp112
I7520
F4.75
sI5860
F4.25
sI8745
F4.5
sI20966
F3.5
sI5991
F4.25
sI20809
F4.5
sI16010
F4.25
sI17259
I4
sI56445
F4.5
sI6868
F4.5
sI6870
F3.75
sI5385
F4.25
sI23580
F4.25
sI753258
I3
sI965950
F3.5
ssS'sampiette'
p113
(dp114
I281962
F3.75
sI229127
F3.25
sI1083786
F3.25
sI119436
I4
sI125442
F3.75
sI162192
F3.75
sI326419
F2.75
sI6857
F3.25
sI1211291
F3.75
sI971036
F2.75
sI1064901
F3.25
sI198690
F3.5
sI13559
F4.75
sI1136293
I4
sI131366
F3.5
sI1140558
F3.5
sI643882
F3.5
sI1146285
F3.5
sI326708
F3.75
sI2870
I4
sI1214775
F3.25
sI362046
F3.75
sI534211
F3.25
sI456261
F3.75
sI479431
F3.5
sI4680
F3.75
sI190537
F3.25
sI1063223
F3.25
sI2743
F4.5
sI893518
F3.5
sI732750
F3.5
sI532814
F3.25
sI1164887
I3
sI714456
I3
sI5724
I4
sI999773
F2.75
sI5776
F4.25
sI238308
F3.25
sI1041830
I3
sI795750
F3.25
sI342503
I3
sI428266
F3.75
sI1212395
F3.25
sI1172338
I3
sI1191031
F3.75
sI636664
I4
sI81914
F3.75
sI207594
F3.25
sI121854
F3.5
sI1023615
F3.25
ssS'Zephrey'
p115
(dp116
I382755
F3.25
sI4997
I3
sI3942
I4
sI6767
I3
sI3952
F3.75
sI8056
I4
sI5714
I5
sI3832
F3.75
sI74073
I4
sI285658
I4
sI67163
F3.75
sI5445
F3.5
ssS'MtBeerSan'
p117
(dp118
I2
F3.25
sI657160
F3.5
sI1215661
I3
sI22296
F1.75
sI938269
F3.75
sI1215649
F4.5
sI20778
I0
sI10413
F3.25
sI888367
I3
sI1118141
F3.25
sI218947
F3.5
sI175428
I3
sI951114
F3.25
sI1215707
F3.25
sI7520
F4.25
sI3558
F3.75
sI753126
F2.75
sI9447
I3
sI365757
F4.25
sI8304
F3.25
sI16631
F3.5
sI514680
I0
ssS'mrfrontside'
p119
(dp120
I959233
I5
sI61129
F4.5
sI1001611
I5
sI937356
F4.5
sI7082
F3.5
sI300566
F4.25
sI37911
F3.75
sI375066
I4
sI811631
F3.5
sI4509
F4.5
sI6469
F4.25
sI162980
I4
sI5925
I4
sI423
I4
sI4138
I5
sI3883
I2
sI12978
F4.5
sI280265
F3.5
sI3770
I5
sI887483
I5
sI25404
I3
sI974144
I5
sI12997
I0
sI6857
F4.25
sI46410
I4
sI47819
F4.5
sI196812
F3.5
sI1061070
I5
sI46415
I4
sI432724
F4.5
sI5845
F1.5
sI76893
F3.5
sI101598
I5
sI3811
F0.5
sI285412
I4
sI790245
I5
sI939878
I5
sI1030761
F4.75
sI943210
F4.5
sI308462
I4
sI81834
F4.25
sI87294
I4
sI848757
I4
sI707958
I5
sI17513
F4.25
sI82680
I4
sI4473
I4
sI4586
I4
sI129534
F4.5
sI8063
I5
ssS'Gorrell83'
p121
(dp122
I82691
F4.5
sI1069189
I4
sI1203206
F4.75
sI998023
F4.75
sI211364
F4.25
sI860514
F4.75
sI260366
F4.5
sI1094293
F3.75
sI1065366
F3.5
sI95386
F3.75
sI863646
I4
sI1114399
F4.25
sI627874
F4.5
sI897060
F4.75
sI816293
I5
sI1041830
I4
sI420647
F4.25
sI1144747
I4
sI5805
F4.25
sI969134
F4.5
sI5406
F3.75
sI503739
F3.5
sI881980
F4.25
sI1215677
F4.5
sI1086688
I4
sI417730
F3.75
sI1123783
F3.75
sI998860
F4.5
sI1156045
F4.25
sI13135
F4.5
sI1216210
I5
sI504277
F4.5
sI28758
I4
sI1076823
I4
sI485773
F4.5
sI1109977
I4
sI1209694
F4.5
sI256864
F4.25
sI655970
F3.5
sI1215675
I5
sI876132
F4.25
sI642406
I5
sI1061226
I4
sI954989
I4
sI181617
F4.25
sI882419
F3.75
sI1071349
I4
sI1209591
F4.5
sI1030394
I5
sI356990
F4.5
ssS'danficc'
p123
(dp124
I1156480
F3.75
sI292101
F3.25
sI219660
F3.25
sI6594
F3.25
sI5262
I4
sI376592
F3.5
sI12817
I3
sI344214
F3.25
sI74073
F3.25
sI1126298
I3
sI974959
F3.75
sI10525
F3.5
sI19359
I3
sI796283
F3.25
sI594084
F2.75
sI876582
I3
sI976551
F3.25
sI537386
F3.5
sI683
F3.5
sI198572
F3.5
sI943789
F3.75
sI787632
F3.75
sI179249
I3
sI291687
F3.25
sI952630
F3.25
sI43963
I3
sI371391
F3.5
sI1126466
I3
sI438214
F3.5
sI1160391
F3.25
sI196684
F3.25
sI25168
F3.25
sI542035
F3.5
sI79957
I4
sI1111716
F3.25
sI1182941
I3
sI1163109
F3.5
sI104059
F3.5
sI371941
F3.75
sI66919
F3.5
sI239591
F3.5
sI65644
F3.75
sI748013
I3
sI1160687
F2.75
sI4593
F3.5
sI1175635
F3.5
sI3828
F3.25
sI442744
I4
sI93307
I4
sI4607
I3
ssS'Trenks'
p125
(dp126
I10080
I4
sI428266
F4.5
sI11844
I4
sI393430
I5
sI70502
I3
ssS'Jmatthe1'
p127
(dp128
I1536
I2
sI4485
I0
sI403846
I5
sI3977
I5
sI12943
F2.5
sI6288
F1.5
sI170514
F4.5
sI13717
I2
sI6422
I4
sI1006553
F3.5
sI5912
I3
sI95386
F4.5
sI4507
I1
sI5925
F3.5
sI39590
I5
sI18215
I4
sI4010
F3.5
sI821
I1
sI6204
I4
sI86589
F2.5
sI5173
F3.5
sI5322
I2
sI3916
F3.5
sI13647
I4
sI7254
I3
sI9688
I3
sI5849
I1
sI5466
F3.5
sI1136859
F2.5
sI9309
F3.5
sI10080
F3.5
sI21857
I2
sI70501
I4
sI3942
F3.5
sI260839
I1
sI7420
F4.5
sI6503
I2
sI3948
F1.5
sI5872
I3
sI435314
F4.5
sI68727
F3.5
sI344184
I4
sI4473
F3.5
sI7674
I4
sI611323
F3.5
sI4476
F0.5
ssS'BeerCanBobby'
p129
(dp130
I503938
I4
sI858244
F3.5
sI6870
F2.5
sI6921
F3.5
sI7434
F2.5
sI1040013
F3.75
sI822926
I4
sI44946
F3.5
sI570410
I4
sI897940
I4
sI52886
I3
sI1017369
F3.5
sI783172
F3.75
sI999456
I4
sI7457
F2.75
sI392354
I4
sI152105
I3
sI264618
I4
sI62255
F2.25
sI16305
F2.5
sI69042
F2.5
sI7221
F2.75
sI5385
F2.75
sI544826
F2.5
sI6344
F2.75
sI378559
I4
sI72651
F2.5
sI28356
I4
sI92488
F3.75
sI29644
F4.5
sI371767
F2.5
sI665420
F3.75
sI568910
F2.5
sI986191
F3.75
sI6609
I3
sI6483
F3.5
sI922582
I4
sI5848
F2.75
sI8122
I2
sI8292
F3.75
sI415206
I4
sI1034345
F3.5
sI49647
F2.25
sI961417
I4
sI449651
F3.75
sI1090550
F3.25
sI885495
I4
sI912763
F4.25
sI11388
F2.5
sI777130
I4
ssS'djones9688'
p131
(dp132
I189953
I2
sI4870
I3
sI517772
I4
sI528045
I2
sI495120
F3.5
sI536627
F3.5
sI1091603
F3.75
sI381112
I3
sI808818
I3
sI460447
F3.75
sI11810
F4.25
sI382755
F2.75
sI120946
F3.75
sI5158
F3.5
sI5928
I3
sI3756
I3
sI3757
F4.25
sI1145135
F3.5
sI888627
I4
sI5428
F3.5
sI142006
I4
sI745929
I4
sI1001272
F3.25
sI887483
I4
sI70974
F3.5
sI52671
F3.75
sI5440
F2.5
sI225865
F3.25
sI1166923
I4
sI7074
F2.5
sI532814
F3.75
sI780241
F3.5
sI555987
F3.5
sI11093
I3
sI1022935
I4
sI5210
F3.5
sI701818
F1.5
sI1246
F3.75
sI511589
F4.25
sI11109
F4.25
sI1119569
F4.25
sI1037420
I4
sI588402
F3.75
sI11894
I4
sI4473
F3.75
sI521338
F3.5
sI55807
I4
sI4476
F1.5
sI750461
I4
sI128341
F3.75
ssS'Licht'
p133
(dp134
I6976
F2.5
sI371716
F4.5
sI918
F3.5
sI767622
I3
sI29064
F4.25
sI20489
F2.5
sI44811
F1.25
sI30092
F1.5
sI52879
I3
sI1137170
F3.5
sI1116438
F3.75
sI27160
F2.5
sI154
F2.5
sI17307
F4.5
sI280732
I3
sI95386
F4.25
sI84508
I3
sI606213
F2.75
sI10032
I4
sI1179554
I3
sI514467
I1
sI479401
F4.75
sI20778
F1.75
sI14891
F3.5
sI84396
F3.25
sI734639
F3.75
sI437680
F2.75
sI8
I4
sI712370
F0.5
sI143540
F2.5
sI1179573
F3.25
sI1154617
I4
sI33994
F2.75
sI1083584
F2.75
sI973251
I4
sI396362
F3.5
sI18894
F2.5
sI1101905
F2.25
sI15929
I3
sI717786
F3.75
sI48353
I4
sI236002
F4.5
sI1065297
F4.5
sI1013486
F2.75
sI32370
F3.5
sI336499
F3.75
sI1105652
F2.5
sI1105527
F2.5
sI1145082
F3.75
sI17663
F4.25
ssS'mxnlobo'
p135
(dp136
I1044997
F3.75
sI1024774
F4.5
sI1058716
F4.5
sI555916
I4
sI975149
F3.75
sI84241
F3.75
sI576660
F3.5
sI1065366
F3.5
sI8472
F4.25
sI1078684
F4.25
sI617629
I4
sI837409
F3.75
sI1045411
I4
sI7076
I4
sI217990
F3.5
sI976551
F3.5
sI1173532
F3.75
sI146475
F3.75
sI1051058
F4.25
sI371869
F3.5
sI15665
I4
sI1056690
I4
sI111540
F3.75
sI12213
F4.25
sI38947
F4.25
sI849208
I4
sI1191097
F4.5
sI42810
I4
sI7611
F3.75
sI85436
F4.25
sI994877
F3.75
sI122012
F4.5
sI255047
I4
sI47816
F4.25
sI1166923
F4.25
sI944077
F4.5
sI111907
I4
sI937697
F3.25
sI171612
F4.25
sI538209
F4.25
sI3942
F3.5
sI5638
I4
sI203757
I4
sI308462
I4
sI11761
I4
sI883058
F3.75
sI1118452
I4
sI1040766
F4.25
sI560377
F3.75
sI993790
F3.5
ssS'greenhorn'
p137
(dp138
I1120384
F4.75
sI632321
I4
sI1151363
F4.25
sI7044
I3
sI722182
I4
sI1205126
I0
sI1212171
F3.75
sI235404
I4
sI1215502
I4
sI579855
F3.5
sI45458
F4.75
sI1224213
F3.75
sI1212310
F3.75
sI846360
F3.25
sI127388
F4.5
sI490277
I4
sI562219
F3.5
sI1074096
F4.25
sI1059506
I4
sI966259
F4.75
sI1136693
I4
sI4041
F4.5
sI1066425
I4
sI819647
F4.25
sI178880
F3.75
sI1050562
I4
sI1086987
I5
sI301381
F3.75
sI840135
F4.75
sI151116
I4
sI1024586
F4.5
sI1092172
F4.5
sI1198542
F3.75
sI1218257
F4.75
sI361171
F4.5
sI43220
I4
sI1224270
F4.5
sI1099350
F4.5
sI1205463
F4.25
sI1079516
F4.25
sI650853
F4.5
sI8681
I0
sI1007217
F2.75
sI386419
F3.75
sI30581
F3.5
sI272105
F1.5
sI607480
F4.25
sI1081849
F4.5
sI978426
F3.25
sI328895
F4.75
ssS'sfdavis'
p139
(dp140
I783489
I1
sI559619
F1.25
sI1129092
F3.25
sI4997
F3.5
sI16649
F2.75
sI4877
F3.5
sI12816
I3
sI1553
I4
sI126867
F3.5
sI491540
F3.75
sI8238
F3.5
sI821593
F3.5
sI4890
F1.75
sI1192989
I3
sI11810
F3.75
sI1136293
I4
sI1078695
F3.5
sI10283
F3.25
sI29100
F3.25
sI868526
F3.5
sI1182941
I4
sI841777
I3
sI8501
I3
sI623542
F2.75
sI748990
F3.75
sI6585
F3.75
sI198458
F3.5
sI766782
F3.5
sI564031
F3.5
sI220612
I3
sI1101942
I3
sI6727
F3.5
sI924873
F3.75
sI1042147
I3
sI1126357
F3.5
sI74073
F3.25
sI13788
F3.25
sI703197
F3.5
sI496101
F3.5
sI21857
I3
sI1015650
F3.25
sI3811
F2.25
sI677349
F3.75
sI19434
I3
sI1160687
F3.75
sI1164276
I3
sI2165
I3
sI591478
I3
sI14201
F2.5
sI1048314
F3.75
ssS'rkalan'
p141
(dp142
I55812
F4.25
sI1104
F4.25
sI952936
F3.75
sI174347
I4
sI73612
F4.5
sI98701
F3.5
sI495120
F3.5
sI960531
F3.25
sI446746
F3.75
sI127388
F4.5
sI1105309
F3.5
sI5279
I3
sI175904
F3.25
sI198690
F2.75
sI751014
I4
sI794407
F3.25
sI742572
F2.5
sI9775
I2
sI1024688
F3.75
sI9652
F3.25
sI7455
F3.25
sI43711
F3.25
sI10049
F3.25
sI1023904
F4.5
sI3916
F2.75
sI827594
I5
sI502219
I5
sI6988
I3
sI1088975
F2.25
sI208
I3
sI8021
F2.75
sI967640
F2.75
sI74073
F3.25
sI103773
I2
sI1092190
F3.25
sI602768
F3.75
sI756091
F2.5
sI8676
F4.5
sI880315
I3
sI356840
F3.75
sI21927
I4
sI3948
F2.75
sI51053
F3.5
sI4079
F2.75
sI6760
I4
sI882292
F3.25
sI695583
F3.25
sI999675
F2.75
sI159869
F2.75
sI8533
I2
ssS'davidtpate'
p143
(dp144
I959233
F4.5
sI19459
F3.75
sI1540
I4
sI5638
F4.25
sI3721
I4
sI295188
F2.5
sI13845
F3.5
sI48918
I4
sI25988
F3.5
sI95386
F4.25
sI84251
F3.5
sI2247
F3.5
sI6469
I5
sI357026
I4
sI419
I4
sI45349
F3.5
sI27689
F3.5
sI245162
F4.25
sI8391
F4.75
sI110895
I5
sI155824
I4
sI291486
F1.5
sI5047
I3
sI11577
I3
sI246239
I5
sI51262
F3.5
sI32821
I5
sI83904
F2.5
sI449
I5
sI30494
I4
sI1995
I4
sI7237
F3.5
sI485703
F3.5
sI4170
F3.5
sI25783
F3.5
sI103075
I4
sI37945
I5
sI371158
F3.75
sI5591
I4
sI17113
I5
sI4133
I5
sI5925
I4
sI113889
F4.25
sI67301
F3.75
sI23910
F3.5
sI5991
I3
sI281962
F2.5
sI111
F3.5
sI679410
I4
sI38932
I5
ssS'Looslevi'
p145
(dp146
I19843
F3.25
sI52232
F3.25
sI182921
I2
sI1048972
I3
sI69010
F3.75
sI75798
F3.25
sI4010
F3.5
sI5939
I4
sI183478
F3.75
sI5385
F4.25
sI59329
F3.25
sI84812
I3
sI415190
I2
sI13271
I3
sI44125
I4
sI7520
I4
sI5860
F3.5
sI17259
F3.75
sI31468
F3.75
sI31472
I3
sI147314
F3.25
sI383094
F2.5
ssS'tgoburgess'
p147
(dp148
I56064
I4
sI3840
I3
sI4996
F4.25
sI4886
I4
sI6278
I3
sI9230
I4
sI4499
I5
sI49557
F2.75
sI91286
F3.75
sI6167
F3.25
sI6811
F4.25
sI127388
F2.75
sI747167
F4.5
sI971296
F4.75
sI64417
F3.5
sI126171
F3.75
sI1013158
F4.5
sI8027
I4
sI127175
F4.5
sI4013
F4.25
sI348850
F4.25
sI4659
I4
sI8629
F3.75
sI5558
I4
sI8380
F3.25
sI499141
F4.25
sI10145
F2.75
sI63816
F3.75
sI1166923
F3.75
sI6348
F2.75
sI6400
F3.5
sI408786
I4
sI532814
F3.75
sI766553
F3.5
sI235995
F4.25
sI1171170
I4
sI4971
F3.5
sI6508
F4.5
sI406125
I5
sI726510
F4.25
sI1160687
I4
sI3952
I4
sI3955
F3.5
sI808823
I3
sI8056
I4
sI781690
I4
sI4607
I4
sI1138044
F3.75
sI923
I4
sI55807
I4
ssS'courtneydw'
p149
(dp150
I69697
F3.75
sI278152
F4.25
sI10634
I3
sI1200652
I4
sI981005
F3.75
sI1172366
F4.25
sI495120
F3.75
sI1136658
F3.5
sI692371
F0.25
sI23958
F3.75
sI2329
F3.75
sI127388
F3.75
sI594084
I4
sI468518
F3.5
sI467495
F2.75
sI931114
F3.5
sI35762
I4
sI305779
F2.75
sI1060006
F2.75
sI581943
F2.75
sI52024
F3.25
sI728889
F3.5
sI682684
I3
sI1016769
F3.75
sI3778
F0.25
sI1128516
I4
sI733509
F3.5
sI7370
F2.75
sI1088975
F4.25
sI8146
I3
sI424275
I4
sI733838
F3.75
sI1153509
F4.25
sI1133280
F2.75
sI7521
F2.25
sI591459
F3.75
sI17636
F2.75
sI7269
I4
sI937703
F3.25
sI1165416
F3.5
sI782186
F2.25
sI1191399
F3.5
sI918771
I4
sI1057524
F3.75
sI642165
F4.25
sI923894
I3
sI761848
F0.25
sI560377
I4
sI83450
F2.75
sI162430
I3
ssS'Biaiaover'
p151
(dp152
I3286
F2.25
sI896512
F3.5
sI811862
F2.25
sI967048
F3.25
sI893836
F2.25
sI913039
F2.5
sI11923
I3
sI1200532
I3
sI215703
F2.25
sI5532
F2.75
sI1206178
F2.75
sI1573
F3.25
sI1226865
F2.5
sI584744
F3.5
sI1205291
I3
sI1127982
I3
sI1202480
F3.25
sI1199541
F2.75
sI79289
F2.75
sI1199802
I4
sI323645
F2.5
sI34626
I3
sI1130179
F3.75
sI1228102
F3.5
sI1106188
F2.5
sI1161719
F3.5
sI1155923
F2.25
sI722390
F3.25
sI1164887
F3.25
sI660952
I3
sI15578
F4.5
sI506511
F3.5
sI755301
I2
sI755300
F3.25
sI1165030
F3.75
sI1200614
F3.25
sI487
I4
sI1203562
F2.75
sI1026796
F2.75
sI1208174
I2
sI5117
F2.5
sI48112
F2.5
sI1157873
I2
sI481918
F2.5
sI7543
F2.75
sI1215225
F2.25
sI300026
F3.25
sI1138044
I3
sI3837
I3
sI1200382
F3.25
ssS'matteryan'
p153
(dp154
I1536
I4
sI205698
F3.5
sI10759
I3
sI962775
F3.75
sI1066508
F2.75
sI9619
F4.25
sI1085718
F3.5
sI890520
F2.75
sI923546
F3.75
sI10525
F4.25
sI10021
F3.75
sI137257
F3.5
sI813099
F4.25
sI198572
I4
sI1119569
F4.25
sI1177647
I4
sI7472
I4
sI128701
F3.5
sI1004954
F2.75
sI25796
I4
sI5445
I4
sI1047883
F3.75
sI6988
I4
sI276302
F3.5
sI567503
F3.25
sI5328
F2.5
sI607569
F3.25
sI5330
F4.25
sI5991
F2.5
sI137814
F3.75
sI1025751
F3.75
sI1152600
F3.75
sI1008345
F3.5
sI615131
F4.25
sI803293
F3.25
sI12510
F3.5
sI10722
I0
sI550243
F3.25
sI4453
F3.75
sI59622
F4.5
sI21991
F4.25
sI732903
F3.5
sI308462
F4.25
sI285885
F3.25
sI7155
F2.75
sI1013
F3.5
sI24279
F4.5
sI82680
F4.5
sI1031035
I4
sI981246
I4
ssS'Sherry1119'
p155
(dp156
I6400
I2
sI418433
I2
sI975107
F2.75
sI593156
F2.75
sI783489
I2
sI3976
F3.25
sI24713
I1
sI6410
F1.25
sI1229452
F1.25
sI470413
F2.5
sI5519
F2.25
sI855185
F2.5
sI17042
I2
sI646035
F2.25
sI826901
F2.75
sI1229440
I3
sI1021340
F2.75
sI873101
F2.25
sI21156
F3.25
sI18598
F2.75
sI978606
F1.5
sI290095
F2.5
sI12346
I2
sI62523
F3.5
sI36924
F2.5
sI3776
F3.25
sI827079
I1
sI496330
I1
sI3787
F2.25
sI6348
F3.25
sI50893
I2
sI71053
I3
sI71761
F3.5
sI4179
I3
sI11988
F2.75
sI154240
I3
sI1206863
F0.75
sI853732
F2.75
sI2153
F1.75
sI428266
F2.25
sI2155
I2
sI70141
F3.5
sI1184498
F2.75
sI86014
I0
sI318710
F1.75
sI1114729
I3
sI1229435
F2.25
sI5117
I3
sI2154
F2.25
sI365310
F1.25
ssS'BoothJ2'
p157
(dp158
I976130
I4
sI719495
I4
sI862473
F3.75
sI720906
F4.25
sI506129
F4.25
sI714644
F3.75
sI939413
F3.75
sI95386
F4.25
sI586675
F4.25
sI401182
F3.5
sI1147169
F3.75
sI50983
F3.5
sI10920
F4.5
sI281771
F3.75
sI149042
F3.5
sI556976
I3
sI729266
I3
sI1023667
F3.75
sI355380
F4.25
sI9909
I4
sI33846
F3.5
sI4663
F3.75
sI1050169
I4
sI33850
F3.75
sI969522
F3.5
sI678337
F3.5
sI3778
I3
sI229958
I3
sI8263
F4.5
sI161352
F3.5
sI867402
F3.75
sI1995
F1.5
sI4172
F4.25
sI26850
F3.5
sI40144
F3.25
sI226514
I4
sI9827
F3.25
sI141272
F3.75
sI5977
F3.5
sI13018
I4
sI9275
F3.25
sI614498
I3
sI631011
F3.5
sI9062
I4
sI170216
F3.25
sI362
F3.5
sI899410
F4.25
sI308462
I4
sI372
F3.25
sI8446
F3.25
ssS'jnavarre4'
p159
(dp160
I18693
F3.5
sI6407
F3.5
sI4143
F3.5
sI24331
F4.5
sI5772
I4
sI586285
F3.5
sI42128
I4
sI1553
I4
sI389614
I3
sI282774
F3.5
sI8343
I5
sI923
I4
sI10525
I4
sI29342
F3.5
sI5659
I4
sI80263
I4
sI57389
I4
sI6830
I5
sI894255
F4.5
sI5428
F4.25
sI821
I4
sI23351
I4
sI27380
I4
sI4538
I4
sI620987
I4
sI5437
I4
sI564031
F4.5
sI887490
I4
sI77637
F4.5
sI8646
I3
sI5684
I4
sI9681
I5
sI1107926
I4
sI188377
F3.5
sI14172
I3
sI41056
I4
sI36834
I4
sI407654
I4
sI155371
I4
sI4588
I4
sI308462
F3.5
sI4593
F4.5
sI707956
I4
sI10358
I4
sI13559
F4.5
sI361592
I4
sI74108
I4
ssS'Perfectpitchrob'
p161
(dp162
I956928
F3.25
sI1094273
I4
sI4484
F3.5
sI4485
F4.5
sI1183878
F4.25
sI6539
F4.25
sI1152528
F3.5
sI5912
I4
sI795543
F3.75
sI450840
I4
sI71833
F4.25
sI696735
F4.5
sI4512
F3.75
sI1826
F3.75
sI523432
F3.75
sI211499
F3.25
sI1005999
F3.5
sI691381
I4
sI1185462
F3.5
sI201
F4.5
sI30648
I3
sI1126714
F3.75
sI361534
I4
sI579649
F4.25
sI35651
I4
sI10948
F4.5
sI19912
F4.25
sI112329
F4.5
sI785611
F3.75
sI5968
F3.5
sI1119569
F3.75
sI558162
F3.5
sI635019
F3.5
sI883030
F3.5
sI6155
F3.5
sI10078
I4
sI3557
F3.75
sI3813
I3
sI3558
F3.5
sI77287
F3.5
sI5714
F3.75
sI308462
F4.25
sI1160687
I4
sI3952
I4
sI1216241
I4
sI372
I4
sI441589
F3.75
sI1157368
I3
sI958459
F4.5
sI435327
F4.5
ssS'theoneoshai'
p163
(dp164
I1054464
F3.5
sI7044
F2.75
sI912790
F3.5
sI344199
F3.75
sI5804
F3.5
sI719627
F3.5
sI646035
I3
sI1085718
F3.25
sI163991
I3
sI5912
F3.5
sI1004953
F3.5
sI7834
I3
sI30855
F3.75
sI10525
F3.5
sI11845
F3.75
sI64417
F3.25
sI1827
I3
sI6310
F3.75
sI5801
F3.75
sI10759
F3.75
sI392748
F3.75
sI490285
I2
sI844852
I3
sI3894
F3.25
sI9144
F3.25
sI1081418
F3.75
sI564031
F3.5
sI338358
F3.5
sI4166
F3.5
sI219937
I3
sI627402
I3
sI576419
F3.75
sI63706
F3.25
sI967132
I3
sI30203
F3.25
sI10084
F3.5
sI618597
I3
sI59622
F3.75
sI4711
I3
sI1172316
I4
sI971879
F3.5
sI308462
I4
sI556392
F4.25
sI808818
F3.25
sI46197
I3
sI773369
F3.25
sI521338
F3.5
sI405755
F2.75
sI682915
F3.25
sI588286
I4
ssS'WarrioSG'
p165
(dp166
I1044097
F4.5
sI795522
F2.5
sI802219
F2.5
sI353921
I4
sI376712
F4.5
sI392748
I4
sI10891
F4.25
sI4499
F4.25
sI5849
F2.75
sI1242
F2.5
sI236060
F3.5
sI617629
F2.5
sI345505
F4.25
sI11810
I4
sI204963
F3.5
sI493638
F3.5
sI423
F3.5
sI73512
F3.5
sI127388
I4
sI733099
F3.5
sI1191724
I4
sI1174189
F4.25
sI662960
F3.5
sI818
F3.5
sI5558
F3.25
sI6921
I4
sI1001272
F2.75
sI4665
I4
sI5771
F4.5
sI120261
I1
sI8518
F4.25
sI1353
F3.5
sI867402
F4.25
sI1111117
F4.5
sI382755
I4
sI295636
I3
sI882646
I4
sI188377
F1.5
sI285658
F4.5
sI913115
F4.25
sI12828
F3.75
sI913247
I4
sI419
I4
sI638512
F3.5
sI5862
F3.75
sI6767
F3.5
sI440946
F3.5
sI646818
I4
sI912763
I4
sI14590
F3.5
ssS'Ryanthrower'
p167
(dp168
I1103489
F4.25
sI32004
F3.5
sI1047813
F3.75
sI29958
F3.75
sI1226631
F3.75
sI1201419
F4.25
sI235404
F4.25
sI33678
F4.75
sI1175312
F4.5
sI802706
F3.5
sI455827
F4.75
sI77333
F3.5
sI473879
F3.5
sI491164
I4
sI535200
F3.25
sI1204514
F3.75
sI58459
F4.25
sI1182378
F4.5
sI484395
F4.75
sI1174188
F4.5
sI570867
F4.5
sI1181360
F4.25
sI624051
I4
sI1183925
F4.75
sI1030985
I4
sI5694
F4.75
sI1205187
F4.5
sI952648
F3.75
sI202185
I4
sI344908
F4.75
sI1161549
F4.25
sI973008
I5
sI471505
F4.25
sI1101651
F4.5
sI596
F3.25
sI747861
F4.5
sI1196635
F4.5
sI1067614
F3.25
sI7520
I3
sI678992
F4.75
sI761061
I4
sI1109351
F4.25
sI966888
F4.5
sI1179116
F3.75
sI1160941
I5
sI481136
F4.25
sI357619
F4.25
sI1048696
I4
sI18555
I4
sI960255
I4
ssS'Bishnoibinni'
p169
(dp170
I2
F4.5
sI657160
F4.25
sI950411
F2.75
sI341646
I4
sI1215661
F3.5
sI19221
I4
sI573334
F4.5
sI938269
F3.75
sI1215649
I5
sI20778
F4.25
sI10413
I4
sI16305
F3.25
sI939878
F3.75
sI365757
F4.25
sI218947
F3.5
sI175428
I5
sI16631
F3.75
sI461904
F4.5
sI1215707
F3.75
sI2014
F3.5
sI7520
I4
sI3558
F4.25
sI6886
F3.5
sI9447
F3.5
sI295276
I4
sI8304
F4.5
sI34039
F4.5
sI514680
F3.25
sI4473
F3.75
ssS'occpimpin'
p171
(dp172
I436480
F3.25
sI1159554
F3.5
sI1165316
F4.5
sI1127175
F4.75
sI139564
F3.25
sI6412
F3.5
sI98448
F4.75
sI187154
F4.25
sI126867
F3.25
sI1022980
I0
sI923
F4.25
sI167200
I4
sI523335
F4.75
sI18211
F3.75
sI375332
I3
sI13105
F2.5
sI6450
I2
sI5804
I4
sI5805
I4
sI43567
F3.5
sI30257
I0
sI348850
I4
sI6451
F4.5
sI5684
I3
sI822581
I4
sI13961
F3.75
sI7480
I4
sI838201
F3.5
sI5818
F4.25
sI6846
I4
sI979445
I0
sI955844
I4
sI788679
I4
sI8904
F4.25
sI4041
F3.75
sI7370
F3.75
sI1182941
I4
sI13018
F2.5
sI472157
F3.75
sI176609
F4.25
sI1121380
F4.5
sI59622
F4.25
sI8936
I4
sI753387
F2.75
sI1195720
F2.5
sI308462
F3.75
sI3902
F4.25
sI1078672
I3
sI735486
F2.5
sI7935
F3.75
ssS'aludwig0405'
p173
(dp174
I480256
I4
sI131841
F3.5
sI80132
F3.25
sI1211654
I4
sI5383
F4.5
sI8712
F2.75
sI1205003
I5
sI1189263
F2.5
sI241298
I3
sI230165
F4.5
sI705560
I3
sI601604
I3
sI81327
F3.25
sI1199772
F3.5
sI1063709
I4
sI977319
F3.25
sI4572
F3.5
sI931114
I3
sI1206571
F3.5
sI273455
F3.5
sI852275
I3
sI1205046
F2.5
sI11193
I2
sI1168970
F3.5
sI674239
I4
sI6539
I4
sI5060
I3
sI8138
F3.25
sI1166923
F3.25
sI5712
I4
sI504431
F4.5
sI602596
I5
sI732
I4
sI1203298
I4
sI9827
I3
sI1148644
I2
sI31078
F3.75
sI1195366
I4
sI23015
F3.5
sI108777
F2.75
sI6122
F4.25
sI45291
F3.5
sI66028
F3.75
sI71405
F4.25
sI1191677
I2
sI510193
F4.25
sI1189084
F3.75
sI274921
F3.5
sI104060
I4
sI14589
F3.5
ssS'dmccahill'
p175
(dp176
I254977
F3.5
sI306947
F3.25
sI77447
F3.25
sI451370
I4
sI1194380
I4
sI16537
I3
sI25499
F3.5
sI128413
I3
sI613664
F3.5
sI744738
I3
sI115227
I2
sI57125
I3
sI447272
F3.5
sI934826
I4
sI43
F4.5
sI1126700
F2.75
sI37810
F3.5
sI1112878
I3
sI39215
F3.5
sI142770
I4
sI51379
F3.5
sI1086519
I3
sI335672
I4
sI840889
I3
sI1170107
I4
sI6204
I3
sI667296
I4
sI14531
I3
sI994120
F3.5
sI8137
I3
sI1086666
F3.25
sI901538
I4
sI27988
I4
sI1154617
I4
sI172282
F3.5
sI784988
F3.75
sI211933
I3
sI1068383
I4
sI998499
F3.5
sI8292
I4
sI1157861
F2.75
sI250912
I3
sI1052648
I4
sI117994
F2.5
sI1128232
F4.25
sI1169783
F4.25
sI1049812
F3.75
sI267514
F4.5
sI1215740
F4.25
sI231421
F3.75
ssS'kreitzer'
p177
(dp178
I1094273
F4.25
sI346754
I4
sI16260
F2.75
sI13701
I4
sI32006
I3
sI198279
I4
sI93576
F4.5
sI17674
I2
sI1028987
I3
sI1199406
I5
sI1026966
I4
sI7044
F4.25
sI127388
F4.5
sI4511
F4.25
sI1052453
I4
sI98726
I4
sI21927
I4
sI1129129
I4
sI31495
F3.25
sI679598
F4.25
sI639407
I4
sI3377
F4.5
sI109364
I4
sI339766
F4.25
sI30648
F3.5
sI9657
F4.5
sI654876
F3.75
sI14018
F3.5
sI681059
F4.5
sI12997
F4.5
sI867402
I4
sI9827
F3.75
sI641360
F1.75
sI574418
F4.25
sI3027
I3
sI5940
I4
sI11758
F4.25
sI501979
F4.5
sI222
F3.5
sI1156707
I4
sI3813
I5
sI1068454
F3.5
sI189804
I3
sI6766
I1
sI2930
I4
sI870521
F4.5
sI655865
I3
sI1152250
F3.25
sI544123
I4
sI913150
I4
ssS'papagosawyer'
p179
(dp180
I6400
F4.25
sI1175939
F3.75
sI4996
I4
sI4997
I4
sI150791
F4.5
sI2447
I4
sI1206672
F3.75
sI563602
F3.75
sI9619
I4
sI833556
F3.75
sI1540
I4
sI17307
F4.75
sI127388
F3.75
sI9759
I4
sI1181221
F4.25
sI152358
F3.5
sI37212
F3.75
sI139564
I3
sI73005
I3
sI710237
I4
sI459185
I4
sI25651
F4.5
sI23736
F3.5
sI7609
F3.5
sI86074
F3.5
sI6204
I3
sI57406
I4
sI19519
F3.5
sI792001
F3.5
sI25544
F4.25
sI493615
I3
sI6988
F4.75
sI285026
I4
sI532814
I4
sI627512
I4
sI16981
I4
sI437725
F3.25
sI94428
F4.25
sI3898
F3.75
sI96
F3.75
sI5729
F4.25
sI11746
F3.5
sI782186
I1
sI446701
I3
sI3950
F4.5
sI7919
F3.75
sI615152
I4
sI266359
I3
sI362
F4.5
sI725589
I4
ssS'chuck2120'
p181
(dp182
I9346
I4
sI1162902
F3.75
sI1182343
I3
sI223368
F2.75
sI27915
F1.75
sI24589
F2.75
sI1092238
F3.25
sI829201
F3.5
sI9283
F4.5
sI1028244
F2.75
sI1056662
F3.25
sI6212
F2.25
sI833556
F2.25
sI665887
I4
sI1212450
F2.5
sI1135395
F3.5
sI375332
F4.25
sI1184422
F4.5
sI1193897
F3.5
sI401834
F3.5
sI198572
F3.5
sI5805
F4.25
sI25519
F2.75
sI72240
F3.25
sI806451
F3.75
sI1163577
F3.75
sI5180
F4.25
sI791234
I4
sI8697
F3.25
sI1128516
F2.25
sI1093573
F3.25
sI22989
I3
sI829197
F2.75
sI1164887
I3
sI10588
F3.25
sI19297
F2.75
sI36834
F3.5
sI12772
F2.25
sI1076453
F3.75
sI342503
F2.75
sI845033
F3.25
sI9835
F3.25
sI414573
F3.5
sI1161582
I3
sI9839
I4
sI17904
F3.75
sI707954
F4.25
sI391029
F2.25
sI515064
F3.75
sI1002388
F4.25
ssS'jdstuffel'
p183
(dp184
I991875
I4
sI16260
F2.25
sI23688
I4
sI16649
F2.5
sI1020443
F2.5
sI231580
I2
sI646818
F4.25
sI643882
F3.25
sI562219
F3.75
sI355380
I4
sI2743
F4.5
sI5437
I4
sI9283
I3
sI456261
F4.25
sI3784
I3
sI406348
F3.25
sI523469
F4.25
sI3832
F3.75
sI9688
F3.75
sI566368
I4
sI428266
F3.75
sI944366
I2
sI13559
I4
sI8056
F3.75
sI424316
I4
ssS'RustyChris14'
p185
(dp186
I11778
F3.5
sI467716
I4
sI5382
I4
sI3977
I4
sI607114
I4
sI17636
I4
sI7053
I5
sI26126
F3.5
sI275730
I4
sI1000595
I3
sI862169
F0.5
sI27801
I4
sI3952
F4.5
sI678442
F0.25
sI605483
I4
sI39475
F4.5
sI11923
I5
sI3764
F4.5
sI781121
I3
sI5835
I4
sI6497
F4.5
sI510027
I4
sI193485
I4
sI24589
F4.5
sI301393
F4.5
sI956626
I4
sI555987
F4.5
sI4052
I2
sI16981
F4.5
sI74073
I1
sI11738
I5
sI1000411
I4
sI860636
F1.5
sI80229
I5
sI904673
I1
sI93284
I4
sI1000421
I5
sI6504
I4
sI7529
F4.5
sI642175
I4
sI8172
I5
sI733422
I4
sI8048
I5
sI656915
I5
sI376692
F4.5
sI938229
I5
sI844792
F4.5
sI3833
F3.5
sI6655
I4
sI149119
F4.5
ssS'PM1978'
p187
(dp188
I61483
F4.75
sI1805
I4
sI262545
F3.5
sI656915
I3
sI1940
F4.5
sI418075
F4.5
sI165535
I4
sI382755
I4
sI9636
I4
sI178597
F4.25
sI17961
I4
sI802219
I4
sI198572
F4.25
sI3245
F3.5
sI814
F4.5
sI556978
I4
sI468020
F4.5
sI56502
F4.5
sI5047
F4.5
sI131260
F3.5
sI319
F4.75
sI821838
F4.5
sI55075
F3.5
sI68565
I4
sI13526
F4.5
sI265893
I4
sI349665
F3.5
sI36834
F4.5
sI1507
F4.5
sI6504
I4
sI177660
F3.5
sI428266
F4.5
sI233965
F4.5
sI658451
F4.5
sI82680
F4.5
sI24825
I4
sI107514
I4
sI31612
I0
sI8063
F3.5
ssS'bnipp22'
p189
(dp190
I923526
F3.5
sI10887
F3.25
sI563602
F3.5
sI118291
F4.25
sI916500
F3.75
sI23448
F3.5
sI553630
F3.75
sI733099
F3.75
sI44716
F3.75
sI142515
I2
sI3770
F4.25
sI59
F3.25
sI6333
F4.5
sI236866
I5
sI6341
I2
sI3784
F3.5
sI13388
I4
sI784483
F4.5
sI6868
F3.75
sI951650
F4.5
sI1507
F4.25
sI8681
I4
sI7018
F1.5
sI65644
F3.75
sI4590
F4.25
sI1160687
F3.5
sI656915
F4.5
sI87059
F3.5
sI8949
I4
sI82680
F4.25
sI4473
F3.75
sI461435
F3.5
sI491900
F4.5
ssS'Thermogenic'
p191
(dp192
I9346
I5
sI7044
I3
sI8325
F4.25
sI762889
I3
sI13580
I3
sI60685
F4.5
sI89358
F4.5
sI5135
I3
sI13074
F2.5
sI22681
I3
sI4868
F4.5
sI285
I4
sI292101
I4
sI780576
F3.5
sI11266
I3
sI478373
I4
sI11433
I4
sI25644
F3.5
sI25645
I3
sI431
F3.5
sI3762
I4
sI7859
F2.5
sI5940
I3
sI9657
I4
sI100028
F4.5
sI930367
I2
sI21857
I4
sI55118
F4.5
sI5880
I2
sI4820
I2
sI468942
F3.5
sI4055
I4
sI627161
F3.5
sI311770
F4.5
sI904923
I4
sI37212
I3
sI7005
F4.5
sI223
F3.5
sI5729
F3.5
sI31714
I4
sI5860
F2.5
sI6887
I4
sI8686
I4
sI4079
F3.5
sI12786
F4.5
sI1053299
I4
sI33268
I2
sI782326
I3
sI1177976
F1.5
sI1228410
I5
ssS'MzDubya'
p193
(dp194
I593156
I5
sI11713
I4
sI263176
I5
sI3721
I5
sI130571
F3.75
sI236866
I5
sI13070
F3.75
sI2321
F3.75
sI1079188
F1.75
sI6687
F3.25
sI3622
F3.5
sI622119
F2.75
sI4743
I4
sI638512
I5
sI11059
F4.25
sI468020
F4.5
sI5047
I3
sI1977
I5
sI4027
F4.25
sI6333
F4.75
sI62
F4.75
sI251232
F4.75
sI6594
F4.75
sI5839
I1
sI392537
I3
sI5210
F2.75
sI96
F2.75
sI308462
F3.75
sI49395
I4
sI246
I4
sI393337
F4.5
sI270206
F3.75
sI8063
F4.75
ssS'SAJ5804'
p195
(dp196
I896666
F2.5
sI993691
F1.25
sI257308
I4
sI232794
F2.75
sI98082
I5
sI387621
F4.25
sI482343
I3
sI1163548
I4
sI358702
I4
sI1182941
F3.25
sI9777
F2.5
sI888627
I4
sI615734
F3.5
sI198714
I5
sI769473
F1.5
sI171972
I4
sI456261
I4
sI1110346
I3
sI406348
I3
sI126173
I5
sI338773
I4
sI1129048
I5
sI285658
F3.75
sI129627
I1
sI213084
F3.25
sI1206621
I3
sI1054698
F3.5
sI119149
I5
sI1020142
I4
sI97661
I5
sI1163636
F3.5
sI424316
I3
sI428266
F3.25
ssS'hopburp'
p197
(dp198
I426224
F3.75
sI345737
F3.25
sI27277
I4
sI1195896
I4
sI1169426
F3.5
sI1172755
I5
sI1940
F3.75
sI70682
F2.5
sI12079
I4
sI14366
I4
sI1102113
I4
sI1174818
I4
sI1087267
I4
sI202788
F3.5
sI4133
F4.25
sI1130535
F3.75
sI397353
I4
sI846124
I4
sI882221
F4.5
sI4910
F3.75
sI26159
F3.5
sI13512
F4.25
sI1073865
F3.75
sI1224120
F3.75
sI428266
I4
sI23738
F3.75
sI8763
I4
sI36924
F3.5
sI403391
F3.5
sI407874
F3.75
sI50243
F4.25
sI1154888
F3.75
sI89336
F3.25
sI867402
I4
sI5712
I4
sI1063121
F4.25
sI1161172
F4.25
sI17237
F3.75
sI63706
F3.25
sI606557
F3.25
sI1206755
F3.75
sI749073
F4.25
sI201066
I4
sI2155
F3.75
sI749074
F4.75
sI129264
I4
sI1199730
I4
sI588408
F4.25
sI466939
I5
sI2154
F3.5
ssS'neraath'
p199
(dp200
I1052160
F4.5
sI1159940
F4.25
sI608903
F4.5
sI25611
F4.5
sI991500
I4
sI123662
F4.5
sI119056
I4
sI557459
I3
sI862169
I4
sI172056
I4
sI870660
F4.5
sI6299
F4.5
sI28
F4.25
sI342746
I4
sI62240
F3.25
sI1225765
I1
sI802471
F4.5
sI5427
F4.25
sI5034
F3.25
sI142770
I5
sI802866
F4.25
sI806451
F4.25
sI844852
F3.75
sI1019576
I4
sI1160634
F4.5
sI3776
F4.25
sI833
I4
sI867402
I5
sI502219
I4
sI6988
I4
sI952781
F4.5
sI8398
F4.25
sI92984
F3.75
sI203396
I4
sI650840
I5
sI74073
F4.5
sI25690
F4.5
sI94428
I4
sI2746
I4
sI1092190
F4.25
sI73130
I3
sI6758
I4
sI356840
I4
sI21994
I5
sI949099
F4.5
sI615151
F4.5
sI32628
I4
sI301685
F2.75
sI8056
F4.5
sI159869
F3.75
ssS'rtalyat'
p201
(dp202
I1180801
F3.75
sI920581
F3.25
sI1141127
I4
sI602732
F3.5
sI1191562
F3.75
sI729881
F3.75
sI782606
I4
sI882733
I4
sI1175312
I2
sI988563
F3.25
sI1137429
F4.25
sI940567
F3.5
sI1143064
I4
sI908569
F3.25
sI678381
F3.75
sI566172
I2
sI1164446
I4
sI520607
I4
sI241059
F3.5
sI742937
F3.75
sI195113
I4
sI556713
F3.25
sI1007915
I3
sI23981
F1.5
sI999475
F3.5
sI1212993
I4
sI669881
F4.25
sI1226172
F4.5
sI993345
F3.5
sI960322
F3.5
sI1226309
F4.25
sI1030985
I4
sI1174476
F4.25
sI47949
F3.5
sI1086669
F3.25
sI936534
F3.5
sI188601
F4.25
sI707163
F3.5
sI102752
I3
sI5601
F3.25
sI987493
F3.5
sI1062248
F2.5
sI93161
F3.5
sI72278
F3.5
sI1027507
F3.75
sI522224
I3
sI1023859
I4
sI1165172
I4
sI1200631
F3.75
sI304891
F3.75
ssS'eddiemoonster'
p203
(dp204
I2560
F3.75
sI130571
F3.75
sI591884
I4
sI1036045
I4
sI316687
I4
sI126867
I4
sI216468
I3
sI557976
F3.75
sI379801
F3.5
sI719162
I4
sI553630
F3.5
sI21664
F3.75
sI342309
F3.5
sI410538
I4
sI850925
F3.25
sI1024688
F3.75
sI844851
F3.25
sI84279
F3.5
sI313
I4
sI596282
I4
sI537791
F2.75
sI984173
I4
sI820935
F3.5
sI1353
F3.75
sI193485
F3.75
sI69710
I3
sI79053
I4
sI758864
I3
sI5880
I3
sI1000057
F3.75
sI2009
I4
sI15325
F3.75
sI56289
F1.5
sI958459
I4
sI503269
F3.5
sI178150
I4
sI6631
I3
sI641257
F3.75
sI600426
I4
sI446701
I4
sI4079
F3.5
sI984176
F3.75
sI12786
F4.25
sI917350
F3.5
sI3830
F3.75
sI13560
F3.75
sI193017
F3.5
sI270586
F4.25
sI511739
I4
sI4074
F3.75
ssS'MTRAVIS63'
p205
(dp206
I580354
F4.25
sI160390
I4
sI8
F3.75
sI1083401
I4
sI49908
F3.75
sI1201938
F3.5
sI245652
F3.5
sI11282
F3.75
sI318748
F3.5
sI258501
F3.5
sI10400
F4.25
sI200225
I4
sI375332
F3.75
sI404264
F3.75
sI416681
F3.75
sI348850
F4.75
sI62639
I4
sI1198152
F3.75
sI566706
F3.75
sI806451
F3.75
sI12213
I4
sI6585
I4
sI2874
F3.25
sI492221
F3.75
sI751294
F3.75
sI455093
F3.25
sI450880
F4.25
sI197748
I3
sI1128516
F3.75
sI77637
F4.25
sI33608
F3.75
sI223053
I4
sI472782
I4
sI959055
F3.75
sI414554
I3
sI1246
F3.75
sI786655
F3.5
sI108260
I3
sI13031
F3.5
sI270568
F3.5
sI389226
F3.75
sI5485
F3.75
sI983794
I4
sI212318
F3.75
sI80886
I3
sI376055
F3.25
sI3765
I4
sI10620
I4
sI15869
F3.75
sI74238
I3
ssS'skst'
p207
(dp208
I7810
I4
sI11268
I2
sI10
I3
sI4878
I4
sI6415
I5
sI495120
I4
sI656915
I4
sI45979
I3
sI182234
I4
sI639008
I4
sI6378
I4
sI3377
I4
sI324777
I3
sI57388
I4
sI316589
I3
sI1185710
I4
sI660015
I3
sI623281
I4
sI3762
I5
sI305204
I4
sI5173
I4
sI3767
I5
sI3761
I4
sI4154
I4
sI6204
I4
sI636753
I2
sI1013
I2
sI5191
I3
sI8759
I4
sI206
I3
sI387407
I4
sI916198
I5
sI1507
I4
sI906109
I3
sI9817
I3
sI21978
I2
sI2913
I5
sI9827
I4
sI50405
I4
sI3942
I4
sI4711
I4
sI933866
I5
sI971879
I3
sI263791
I4
sI18545
I4
sI8949
I4
sI941687
I3
sI4473
I3
sI239996
I4
sI380797
I4
ssS'TheNino'
p209
(dp210
I19968
I4
sI657409
F3.25
sI376706
I3
sI978326
I3
sI545798
I5
sI1223304
F4.25
sI419864
I4
sI325260
F4.5
sI1059714
F4.5
sI573328
F3.5
sI11921
F3.5
sI1048978
I4
sI23317
I2
sI908182
F3.5
sI1148184
I4
sI758555
I3
sI58140
F4.5
sI683354
F4.5
sI696735
F3.75
sI1196656
F4.5
sI1022501
I4
sI1058600
I5
sI127388
F3.75
sI1023276
I4
sI393517
F4.5
sI38685
F4.25
sI883377
F3.75
sI354335
I4
sI998460
F2.75
sI1211071
F3.75
sI1067073
F4.25
sI27331
F3.25
sI1138884
F4.5
sI804935
I3
sI1067080
F4.5
sI1024586
F4.5
sI896715
I4
sI977672
F4.25
sI1103952
F4.25
sI20302
F4.25
sI1066202
I3
sI1173473
F3.5
sI28168
F3.25
sI281962
F3.25
sI1136658
I4
sI1027566
F3.25
sI351472
I2
sI758516
I2
sI1168252
F3.25
sI823551
F1.75
ssS'Mosquitobh'
p211
(dp212
I111233
F2.5
sI268034
F2.75
sI147333
F3.25
sI1220616
F3.75
sI1013516
F3.5
sI129346
I4
sI61070
F2.5
sI999441
F4.5
sI155672
F3.5
sI18972
F3.75
sI169434
F3.25
sI1221445
F3.75
sI269345
I2
sI66340
F4.5
sI1221286
F3.5
sI175402
F2.75
sI1112619
F4.25
sI133421
F1.25
sI12462
F2.5
sI17873
I0
sI27571
I3
sI601141
F4.25
sI43705
F3.25
sI1131962
F4.5
sI395317
I4
sI64706
F3.5
sI1221444
F3.5
sI293573
F2.5
sI4680
I4
sI4681
F4.5
sI17871
I4
sI557137
F4.25
sI334677
I3
sI897038
F3.75
sI30042
F2.75
sI54493
I3
sI1008485
F3.25
sI7520
I3
sI603235
F3.5
sI15332
F3.75
sI92645
I4
sI358
I4
sI137681
F4.5
sI5991
F3.5
sI339949
I2
sI815344
F4.25
sI3954
F4.5
sI172661
F2.5
sI864893
F3.5
sI864639
F3.25
ssS'Tomvanness'
p213
(dp214
I1208776
F3.75
sI1220082
F4.5
sI1099523
I4
sI127388
I5
ssS'Eheat'
p215
(dp216
I1199265
F3.5
sI53251
F3.75
sI161414
F3.5
sI445837
F3.5
sI1181383
F3.75
sI455184
I4
sI1162769
I4
sI865811
F3.75
sI656917
F3.5
sI15128
F3.5
sI355483
I3
sI246300
F3.75
sI8480
F3.5
sI749089
F3.75
sI819490
F3.75
sI787867
F3.5
sI1194054
F3.5
sI313128
F4.5
sI979883
I4
sI1183663
F3.5
sI52272
F3.5
sI51016
F3.5
sI1188533
F3.75
sI438972
F3.5
sI1190205
F3.75
sI201407
F3.25
sI636480
F3.5
sI1055809
F3.75
sI10691
F3.5
sI5190
I4
sI1181025
I4
sI5832
F3.5
sI428079
F3.5
sI1208480
I4
sI558162
I4
sI1197529
I4
sI7005
I3
sI1220446
F3.75
sI481
I4
sI713571
F3.75
sI121572
F3.25
sI1153509
F3.5
sI1222253
F3.5
sI808818
F3.5
sI557459
I4
sI1222262
F3.5
sI1177976
F3.75
sI82810
F3.75
sI16123
I3
sI10364
I3
ssS'GUINNESS42'
p217
(dp218
I15490
I3
sI17643
I3
sI582276
I4
sI524677
F2.75
sI11528
F2.5
sI684804
F2.5
sI7053
I4
sI1007254
I3
sI825871
F4.25
sI17042
F2.75
sI795396
I4
sI77337
I3
sI316187
I4
sI232477
F2.5
sI692896
F3.5
sI1826
I3
sI1135011
F2.25
sI181929
I4
sI733099
F3.5
sI12916
I2
sI1078455
F4.5
sI173355
I4
sI5180
I4
sI496330
F4.5
sI130880
F4.25
sI5856
I3
sI6539
I4
sI1044938
I4
sI167116
F3.5
sI1084493
I4
sI745680
I4
sI59221
F2.5
sI13270
I3
sI6102
I3
sI285658
F4.25
sI1133403
F3.5
sI7520
F2.5
sI1177424
I4
sI6375
F2.5
sI947048
I5
sI428266
F2.75
sI17259
F1.75
sI66925
I3
sI6767
I3
sI48241
I3
sI147314
I0
sI103028
F3.5
sI1039094
F3.5
sI844792
F3.25
sI178047
I3
ssS'whobetta'
p219
(dp220
I45184
I0
sI53299
I0
sI10371
I0
sI562948
I0
sI594055
I0
sI504586
I0
sI145420
I0
sI48909
I0
sI95386
I0
sI4890
I0
sI642807
I0
sI1155618
I5
sI606501
I0
sI1109033
I0
sI675882
I0
sI677170
I0
sI1056690
I0
sI888627
I0
sI134198
I0
sI571706
I0
sI14140
I0
sI774730
I0
sI1046722
I0
sI9283
I0
sI59845
I0
sI650310
I0
sI1119431
I0
sI125964
I0
sI15178
I0
sI75467
I0
sI11468
I0
sI1101304
I0
sI558162
I0
sI58966
I0
sI440283
I0
sI531550
I0
sI951265
I0
sI1162466
I0
sI1179107
I0
sI1094185
I0
sI1119569
I0
sI1026364
I0
sI364477
I0
sI504309
I0
sI1039529
I0
sI21752
I0
sI674425
I0
sI1149439
I0
sI1069310
I0
sI565503
I0
ssS'Holm16'
p221
(dp222
I1070467
F2.25
sI207620
F1.75
sI74967
F3.75
sI188814
F3.25
sI1034130
F0.25
sI1171994
F3.25
sI170780
F2.5
sI626336
F2.25
sI1190952
F3.5
sI545834
F3.25
sI1068844
F2.5
sI451758
I4
sI337843
F1.5
sI5940
F3.25
sI5941
F3.75
sI37946
I1
sI668127
I3
sI6204
F3.5
sI1122878
I3
sI44608
F1.5
sI43552
F3.25
sI8843
F2.5
sI1124932
F3.25
sI37323
F1.25
sI1155533
F3.5
sI1058125
F2.75
sI665553
I1
sI413013
F3.25
sI60246
I2
sI1032791
F3.25
sI1174619
F3.5
sI49500
F3.25
sI1008762
F3.25
sI29919
F3.25
sI7520
F2.75
sI1068642
I2
sI356
F2.25
sI1190503
F2.75
sI7420
F3.5
sI1120364
F0.5
sI5101
F3.25
sI8943
F2.25
sI433008
F3.75
sI289266
F0.5
sI589558
F3.5
sI246377
F2.75
sI13560
F3.5
sI378
I3
sI1105916
F3.25
sI9087
F2.25
ssS'GoHerd82'
p223
(dp224
I24192
I3
sI136705
I3
sI4995
F3.5
sI11397
I3
sI10759
I3
sI23305
I3
sI6154
I3
sI10891
F3.5
sI560908
I3
sI41358
F3.5
sI27535
F4.5
sI229776
I3
sI313838
F3.25
sI100888
I3
sI289476
F3.5
sI4508
I4
sI1242
F3.5
sI291103
F3.5
sI457504
I4
sI7078
I3
sI11563
F3.5
sI9774
I3
sI155824
F3.5
sI623281
I2
sI19855
I3
sI144952
F3.5
sI33460
F3.5
sI808260
I3
sI10309
F3.25
sI3914
F3.5
sI5963
I3
sI38604
I3
sI581837
F3.75
sI471635
F3.75
sI995540
F3.5
sI818776
F3.5
sI285658
F4.5
sI195163
I3
sI5724
I4
sI67301
I3
sI1424
F3.5
sI229989
I3
sI6375
F3.25
sI23022
F4.25
sI790639
F3.5
sI7281
I3
sI71155
I3
sI805493
I3
sI120276
I3
sI5781
F3.5
ssS'rabsten'
p225
(dp226
I8384
F4.5
sI358044
F4.5
sI296726
I4
sI42630
I4
sI33159
F4.5
sI1164887
F4.5
sI5773
F4.25
sI940046
F4.5
sI495120
F3.5
sI816659
F4.75
sI15894
F4.75
sI591300
I3
sI95386
F4.75
sI1154735
I4
sI314652
I4
sI3869
F4.25
sI318405
F4.5
sI314529
F4.75
sI357026
F4.5
sI263592
F4.75
sI332201
I5
sI1154710
F4.5
sI355485
F4.5
sI155824
I5
sI1160500
F4.5
sI1094585
F3.5
sI291103
F4.5
sI1156157
I4
sI83904
F4.5
sI309387
I5
sI845636
F3.5
sI5061
I5
sI397382
F4.5
sI296730
I4
sI608336
I4
sI8914
F4.5
sI1158227
F4.5
sI371158
F4.5
sI816343
I4
sI448217
I4
sI6106
F3.5
sI1044059
F4.25
sI888668
I5
sI67301
I5
sI990178
F4.5
sI3813
I3
sI1016426
F3.5
sI1102064
I4
sI1154728
I4
sI374259
I4
ssS'Itsfuntobefit'
p227
(dp228
I1138202
F4.25
sI306179
F3.75
sI1107926
F3.75
sI18311
F3.75
sI6284
F3.5
sI650509
F3.75
sI605840
I4
sI1030930
I4
sI402195
F3.75
sI1940
F3.75
sI1208537
F3.75
sI586564
I4
sI3994
F3.5
sI12079
F3.75
sI1199772
F3.75
sI7322
F3.75
sI1174818
F3.75
sI18009
F3.75
sI1144615
F3.75
sI6109
F3.5
sI29100
I4
sI26159
F3.75
sI939290
I4
sI286137
I4
sI23738
F3.75
sI770783
F3.75
sI36924
F3.25
sI226744
F3.75
sI54980
I4
sI403526
F3.5
sI1173703
F3.75
sI19402
I4
sI36834
F3.75
sI560376
F3.75
sI571478
F3.75
sI5977
F3.75
sI1182941
I4
sI512991
I4
sI1173473
F3.75
sI9954
I4
sI329061
F3.75
sI70502
F3.75
sI115304
I4
sI428266
F3.75
sI1169426
F3.5
sI981232
I4
sI1156282
I4
sI446712
F3.75
sI1022332
F3.75
sI1134845
F4.25
ssS'terribleone55'
p229
(dp230
I6400
F3.75
sI146475
F4.75
sI1161988
F3.25
sI11659
F4.25
sI1425
F3.5
sI419864
F3.75
sI378266
F3.75
sI127388
I4
sI329178
I4
sI39838
F3.75
sI6559
F4.25
sI1045411
F4.25
sI375332
F3.5
sI1008678
I4
sI1172081
F4.25
sI5801
I4
sI118443
F4.5
sI943789
F3.75
sI451758
F4.25
sI1056690
F4.25
sI4593
I4
sI5558
I4
sI1007217
F4.5
sI43833
I4
sI1118141
F3.5
sI352321
I3
sI51523
F2.75
sI733509
F3.75
sI493638
F2.25
sI346952
F4.75
sI659529
F0.5
sI10062
I4
sI315858
F2.25
sI1213011
F4.5
sI29271
I4
sI63706
I3
sI75618
F4.75
sI681828
F3.75
sI1163109
F4.25
sI3985
F3.75
sI5799
F3.5
sI1038060
F4.25
sI4589
F4.25
sI6766
F3.75
sI3825
F2.75
sI1069310
F3.75
sI5750
I1
sI1030394
I5
sI568188
F3.75
sI8446
F3.5
ssS'GregMiller51'
p231
(dp232
I764672
I3
sI371969
F3.5
sI963971
F3.5
sI6277
F3.25
sI4743
F3.75
sI798088
F3.5
sI12553
I4
sI130571
F3.75
sI21135
F3.75
sI14225
F3.75
sI1020691
F3.75
sI335381
I2
sI74073
F4.25
sI150552
F3.25
sI457497
I3
sI127388
F3.75
sI360352
F4.25
sI198690
F3.75
sI5928
F3.5
sI681769
I2
sI3883
F2.5
sI60844
F3.5
sI224053
I3
sI801208
I3
sI10570
F3.75
sI5280
F3.75
sI1194054
I4
sI6497
F3.75
sI2762
I4
sI921676
I3
sI310990
F3.5
sI1088975
I3
sI18360
F3.75
sI675922
F3.25
sI51053
F3.25
sI12654
I4
sI227032
I3
sI9945
F3.75
sI327183
I3
sI3553
I3
sI3557
I4
sI358
I4
sI16872
I3
sI263532
F3.25
sI5101
F3.75
sI24814
I4
sI418673
F3.75
sI3603
F3.75
sI44533
F4.25
sI1179157
F3.75
ssS'rickover'
p233
(dp234
I3286
F2.5
sI896512
F3.5
sI811862
F2.25
sI967048
F3.5
sI1106188
F2.5
sI913039
F2.75
sI11923
F3.5
sI1200532
F3.25
sI215703
F3.25
sI5532
F2.75
sI1206178
F2.75
sI1573
F3.25
sI1226865
F2.5
sI584744
F4.25
sI1205291
I3
sI1127982
I3
sI1202480
F3.25
sI1199541
I3
sI1199802
F3.5
sI323645
F2.75
sI34626
I3
sI1130179
F3.5
sI25796
F3.25
sI1228102
I3
sI893836
F2.5
sI1161719
I3
sI1155923
F2.25
sI722390
F3.25
sI660952
I3
sI15578
I4
sI506511
F3.5
sI66268
F2.75
sI755301
I3
sI755300
F3.25
sI1165030
F3.25
sI1200614
F3.25
sI487
F4.25
sI1203562
F2.75
sI1026796
F3.5
sI1208174
I2
sI5117
F2.5
sI48112
F2.5
sI1157873
I3
sI481918
F2.75
sI7543
F2.75
sI1215225
I3
sI300026
F3.25
sI1138044
I3
sI3837
I3
sI1200382
F3.25
ssS'HeleneD'
p235
(dp236
I106753
F3.75
sI642
F3.5
sI1228677
F3.75
sI638856
F3.5
sI60170
F3.5
sI27915
I4
sI763020
F3.25
sI538899
F3.75
sI35476
F3.5
sI50862
I4
sI431384
I4
sI59419
I3
sI522652
F3.75
sI182557
F3.75
sI127774
F3.75
sI723397
F3.5
sI772001
I4
sI64549
F3.25
sI519463
F3.5
sI816425
F4.25
sI81068
I4
sI491310
F4.25
sI6429
F3.25
sI21296
F3.5
sI720307
F2.75
sI5940
F3.75
sI60852
I4
sI72949
I4
sI712641
F4.5
sI979781
F3.75
sI8646
F3.75
sI913997
F3.5
sI31950
I4
sI11473
I4
sI28243
I4
sI86357
I4
sI237791
I4
sI824546
F4.5
sI149091
I4
sI92137
F4.5
sI45420
F3.75
sI45421
F3.5
sI5999
F3.5
sI6000
F3.5
sI7028
I4
sI483317
F3.5
sI1010680
F3.5
sI4473
F3.5
sI7036
F3.5
sI57855
F3.5
ssS'Bandito5'
p237
(dp238
I1156480
F3.5
sI173442
I3
sI1175939
F3.75
sI556422
I3
sI750856
F3.75
sI249580
F3.25
sI380427
I4
sI201101
F3.5
sI895118
I4
sI585609
F3.25
sI933141
I3
sI1101462
F3.5
sI971287
F3.25
sI93848
I4
sI127388
F2.5
sI503840
I4
sI6945
I2
sI8113
F3.75
sI807979
F2.5
sI202156
F3.5
sI269485
F3.75
sI1182941
F3.5
sI1074865
I2
sI299827
F3.25
sI1137845
F3.5
sI968521
F3.75
sI496699
F3.5
sI6846
F4.25
sI836
I1
sI21991
F2.5
sI41289
I4
sI428382
F2.5
sI1206742
F3.25
sI325867
F3.5
sI44381
F3.5
sI795522
F2.5
sI1179360
F2.75
sI900065
F3.25
sI240996
F3.25
sI441447
F3.75
sI238825
F3.5
sI894826
I3
sI338923
F3.25
sI231276
I4
sI6765
F3.5
sI1084270
I4
sI40169
I3
sI92024
I3
sI782164
F3.25
sI9850
F4.5
ssS'sangabrielfortresses'
p239
(dp240
I1180801
F3.75
sI836483
I3
sI920581
F4.5
sI1141127
I5
sI671112
I4
sI1210634
F3.75
sI722626
F4.25
sI1136142
I4
sI1175312
I2
sI1143064
F3.5
sI988563
F3.75
sI338069
I5
sI74073
F3.5
sI1200536
I5
sI742937
F4.25
sI1164446
F3.25
sI1200543
F4.25
sI1196193
F4.5
sI1221155
F4.75
sI1138215
F4.75
sI1212993
F4.5
sI1207223
F3.5
sI669881
F4.5
sI829372
I4
sI1191562
F3.75
sI1180735
I5
sI102752
F2.75
sI960322
F3.75
sI727747
F3.5
sI1125446
F4.25
sI1174476
I5
sI719249
I4
sI1036626
F4.5
sI8021
I5
sI573273
F4.75
sI1145565
I5
sI1068639
I4
sI568800
I5
sI89083
F3.25
sI993345
I3
sI1057895
F3.75
sI1062248
F3.25
sI93161
I1
sI38509
F4.75
sI404207
I5
sI556147
F4.5
sI1200631
F3.75
sI975619
F4.75
sI39295
F4.25
sI1212821
F4.25
ssS'Dannerdave'
p241
(dp242
I1010309
F1.75
sI766224
I5
sI21637
F3.75
sI916500
F3.5
sI270358
I3
sI34329
I4
sI613807
F4.25
sI800412
I4
sI857629
F3.25
sI927007
F4.25
sI62112
I4
sI1054626
F4.25
sI5723
F4.75
sI502951
F4.75
sI68082
F3.75
sI91055
F4.25
sI86449
F4.5
sI47670
I4
sI67767
I3
sI5437
F3.5
sI80574
F4.5
sI121023
F4.25
sI118208
F4.25
sI6337
F4.25
sI468918
I4
sI430537
I3
sI1182285
F3.75
sI371869
F4.5
sI8531
F3.5
sI3286
F2.25
sI1213949
F4.5
sI1197532
I5
sI989661
F3.75
sI7520
I3
sI21857
F3.25
sI1051491
F4.25
sI66917
I5
sI5991
F2.5
sI397160
F3.75
sI13675
I4
sI707692
I3
sI5999
I4
sI305906
I0
sI20798
F3.25
sI883318
F4.25
sI1146658
F3.75
sI7420
I3
sI1533
I4
sI7166
I4
sI1210367
F2.5
ssS'lucienschroyer'
p243
(dp244
I392193
F4.25
sI779138
F3.5
sI4997
I5
sI16649
F3.5
sI5912
F4.5
sI3865
I5
sI4509
I4
sI382755
I4
sI29102
I5
sI360626
F4.25
sI724916
I5
sI6583
I5
sI4671
I5
sI6724
I5
sI369862
I2
sI1140940
I4
sI1182160
I4
sI385890
F3.5
sI3942
I4
sI6887
I4
sI3815
F4.25
sI441842
I3
sI758516
I4
sI4473
I5
sI1214591
F4.25
ssS'jbar'
p245
(dp246
I8579
F3.5
sI112516
F4.5
sI265989
I3
sI123662
F4.5
sI126867
F3.25
sI61038
F3.75
sI963991
F3.25
sI71833
F3.5
sI793838
F3.5
sI696735
I3
sI919201
I3
sI615701
F4.25
sI91303
I4
sI579625
I3
sI5714
F3.5
sI336171
F3.25
sI7597
F4.5
sI905134
I4
sI3759
F3.5
sI4995
F3.5
sI1001272
F3.25
sI678461
I3
sI3775
F3.25
sI23488
F2.75
sI6726
F4.5
sI509385
F3.5
sI244782
I3
sI746444
F3.5
sI228942
I4
sI381775
F2.5
sI266065
I3
sI315858
F4.5
sI322900
I3
sI3934
I3
sI15712
I4
sI937697
I3
sI618597
F0.5
sI81489
F3.25
sI71016
I4
sI414573
F3.5
sI308462
F3.5
sI4847
I3
sI953456
I3
sI18545
F3.5
sI789108
F3.25
sI157815
I3
sI636664
I4
sI5756
I3
sI993790
F3.75
sI435327
F3.5
ssS'BanJhankri'
p247
(dp248
I87680
F3.5
sI75649
F3.75
sI4482
F3.5
sI1066923
F3.5
sI132097
F3.75
sI613768
I4
sI911881
F3.75
sI19223
F3.75
sI22030
F3.75
sI2447
F3.75
sI223376
F3.25
sI897940
F3.5
sI586774
F3.5
sI795543
F3.75
sI733636
F3.5
sI586793
F3.5
sI39687
F2.75
sI1171757
I3
sI762546
F3.25
sI1030585
F3.75
sI1030586
F3.5
sI1030588
F3.5
sI503520
F3.5
sI833
F3.5
sI1049793
F3.5
sI5956
F3.75
sI124869
F3.75
sI338758
F3.75
sI10703
F2.5
sI1094992
F3.5
sI802001
I4
sI1149394
F2.5
sI981077
F3.75
sI971449
F3.25
sI1041752
F3.75
sI835574
F3.25
sI1118426
F3.25
sI136670
F3.75
sI7520
F2.5
sI762064
F3.5
sI1060067
F3.5
sI40422
F3.25
sI323305
F3.5
sI954989
F3.75
sI308462
F3.75
sI1030589
F3.5
sI732021
F3.25
sI349302
F3.5
sI12541
F3.75
sI673150
F3.75
ssS'AlexXxander'
p249
(dp250
I108992
F3.75
sI42371
F3.25
sI2565
F4.5
sI1170822
F3.5
sI976406
I2
sI953241
F4.5
sI934468
F3.5
sI360986
I3
sI721692
F3.75
sI95386
F3.25
sI111907
F3.5
sI627492
F2.5
sI938406
I3
sI864296
F2.5
sI162217
F3.25
sI36779
F4.5
sI962734
F3.5
sI80815
F3.75
sI1084744
I3
sI60338
F3.5
sI193203
I4
sI38071
F4.25
sI1113016
F2.25
sI462014
F3.5
sI130880
F4.25
sI1142496
F4.75
sI17860
I4
sI1001813
F3.75
sI191559
I4
sI72136
F3.75
sI772403
F1.5
sI1153355
F3.5
sI1065423
F0.5
sI976339
F3.75
sI640340
F3.75
sI981077
F3.5
sI1117528
F4.75
sI11097
F4.25
sI1008378
F3.75
sI103136
F4.25
sI31845
I3
sI407654
F3.25
sI247272
F4.25
sI30318
F3.5
sI1191796
I3
sI976245
F4.25
sI82680
I4
sI904825
F3.75
sI19066
F4.75
sI880255
I1
ssS'Tekah'
p251
(dp252
I894720
F4.5
sI814337
F3.25
sI1192196
F3.5
sI443781
F3.75
sI1023238
I4
sI1190795
I4
sI1199760
F4.25
sI1221521
I2
sI1139602
F3.25
sI4499
F4.5
sI1059349
F2.75
sI686743
I4
sI1046298
F4.5
sI1154459
F3.75
sI1199775
F4.25
sI82337
F3.75
sI977954
I4
sI1074339
F2.75
sI3108
F3.25
sI4133
F4.25
sI992172
F3.5
sI1145779
I4
sI885560
F3.5
sI1047028
F4.25
sI498591
F2.75
sI1218492
I3
sI898878
F3.75
sI1214913
F3.5
sI859203
F3.5
sI517494
F3.75
sI877131
F3.5
sI705102
F3.5
sI1195215
F3.25
sI449208
F3.25
sI419534
I4
sI1050712
F3.75
sI1172962
I4
sI1170769
F3.75
sI867595
F4.75
sI863850
F3.5
sI1065324
F3.75
sI308462
F3.75
sI1191796
F3.75
sI129534
F4.25
sI23542
F3.5
sI778743
F4.5
sI39674
I3
sI1197052
F3.75
sI83197
F3.5
sI1170942
F3.75
ssS'Eduardoldp'
p253
(dp254
I111233
F2.75
sI268034
F3.5
sI675716
F3.5
sI4485
I4
sI44678
F3.75
sI8073
F3.75
sI747917
F2.75
sI61070
I4
sI1965
F3.75
sI1056403
F3.5
sI304408
I4
sI13211
F2.75
sI1206405
I4
sI1824
I3
sI79782
F4.5
sI59559
I4
sI1093503
F3.25
sI5419
I2
sI12466
F3.5
sI142770
F4.25
sI5943
I4
sI43705
I3
sI800757
F4.5
sI21927
I3
sI4679
I3
sI4680
F4.25
sI4681
F4.5
sI136656
F3.75
sI137681
I4
sI43220
F4.5
sI96597
F4.25
sI30042
F2.75
sI567647
F4.5
sI7520
F2.75
sI850530
F3.5
sI603235
F3.75
sI145508
F4.25
sI11621
F2.75
sI5991
F3.5
sI73577
F3.75
sI1127
F4.5
sI364
I3
sI877
F4.5
sI1939
F3.75
sI172661
I3
sI29559
F3.5
sI457594
F4.5
sI13563
I4
sI1136382
I3
sI864639
I4
ssS'Scotty2hottie_21'
p255
(dp256
I70144
F3.5
sI710337
F2.5
sI70145
I5
sI49866
F3.25
sI27915
F2.5
sI7378
I4
sI741747
F3.5
sI430964
F3.25
sI23032
F2.5
sI4473
I3
sI23162
I4
sI149887
I0
ssS'ajaylock'
p257
(dp258
I753283
F3.25
sI1191399
I4
sI1185672
F4.25
sI448044
F4.25
sI946188
F3.75
sI834663
F4.5
sI17423
F3.25
sI974864
F4.25
sI8337
I4
sI1136789
F3.75
sI978326
F4.25
sI156823
F3.75
sI734642
I4
sI1211162
F3.25
sI1059611
F3.5
sI1169821
F4.25
sI1081630
F4.5
sI810401
F4.5
sI911910
F3.5
sI632103
F4.5
sI1206440
F3.5
sI1193260
I4
sI1189682
I4
sI735280
F3.25
sI1116466
I4
sI317342
F3.5
sI1171254
F4.5
sI659129
I4
sI1194812
F4.5
sI881216
I4
sI6725
F3.5
sI1217095
I0
sI1183009
I4
sI1206351
F4.75
sI1188697
F4.75
sI1215450
I0
sI889947
I4
sI1182941
F3.5
sI682206
F3.75
sI65759
F3.75
sI1081568
F4.5
sI7057
I3
sI529000
F4.5
sI682684
F3.75
sI1171559
F4.25
sI1015921
I4
sI129200
F3.5
sI934521
F4.25
sI972795
F3.75
sI1180594
F4.75
ssS'AngryBlonde'
p259
(dp260
I2560
I0
sI627202
I0
sI19459
I0
sI642309
I0
sI14597
I0
sI205064
I0
sI1025676
I0
sI666511
I0
sI1199760
I0
sI46865
I0
sI126867
I0
sI1065492
I0
sI76824
I0
sI1199775
I0
sI758048
I0
sI382755
I0
sI421
I0
sI764071
I0
sI119080
I0
sI451758
I0
sI235696
I0
sI47923
I0
sI26164
I0
sI343224
I0
sI2762
I0
sI353592
I0
sI409926
I0
sI448327
I0
sI823882
I0
sI13131
I0
sI277090
I0
sI5455
I0
sI137681
I0
sI32722
I0
sI17748
I0
sI1076058
I0
sI871771
I0
sI1152482
I0
sI24675
I0
sI1096165
I0
sI576593
I0
sI528616
I0
sI323305
I0
sI1038699
I0
sI308462
I0
sI769128
I0
sI878707
I0
sI743926
I0
sI663163
I0
sI25980
I0
ssS'mgretry'
p261
(dp262
I25216
F3.25
sI971435
I4
sI6921
I4
sI170890
F3.5
sI752139
I4
sI686743
I4
sI156557
I4
sI284909
F3.5
sI374544
I4
sI138643
I3
sI269207
F3.5
sI300310
F3.5
sI634519
F3.75
sI121880
F3.75
sI95386
I4
sI26529
F3.5
sI899746
I4
sI82211
F3.75
sI317989
F3.75
sI853419
F3.75
sI8238
I4
sI29149
F3.5
sI40880
F3.5
sI12720
F3.75
sI2614
F3.5
sI224184
I4
sI509373
F3.75
sI838078
I4
sI94401
F3.75
sI420422
F3.75
sI563531
I4
sI1045325
F3.5
sI201101
I4
sI61779
F3.5
sI353365
F3.75
sI1200727
F3.75
sI49459
F3.75
sI13018
F3.75
sI264028
F3.75
sI572381
I4
sI4702
F3.5
sI177888
F3.5
sI56173
F3.5
sI147182
F3.75
sI895601
I4
sI895603
F3.75
sI26742
I4
sI436472
F3.75
sI166576
F3.5
sI6997
F3.75
ssS'bcryan'
p263
(dp264
I18689
F4.75
sI205698
F3.5
sI73735
F3.5
sI3721
F3.25
sI6410
I3
sI24279
F4.25
sI10511
F3.5
sI82449
F3.5
sI804419
I4
sI6510
F4.5
sI4886
F4.25
sI6683
F4.25
sI6687
F3.5
sI1162912
I4
sI791202
F2.25
sI1045411
F4.25
sI10021
F3.5
sI21927
F4.25
sI5416
I0
sI4010
F3.25
sI720519
F2.75
sI11821
F4.75
sI638512
F4.25
sI7243
F4.5
sI829
F3.25
sI62
F3.75
sI21664
F4.25
sI4043
F4.25
sI615131
F4.25
sI317895
F3.5
sI867402
I4
sI1047883
I4
sI4044
I4
sI4045
F4.25
sI5328
I4
sI5335
F3.5
sI1152600
F3.75
sI67163
F4.25
sI12510
I4
sI156870
I0
sI128701
F3.75
sI5476
F4.25
sI4453
F3.5
sI3942
F3.25
sI250023
I3
sI308462
I4
sI127101
I4
sI8310
I4
sI3837
F3.5
sI393471
I4
ssS'Maddycar7'
p265
(dp266
I5856
F3.75
sI495120
F4.25
sI165538
I4
sI6117
I5
sI10887
F3.25
sI3784
I4
sI16649
F4.75
sI4010
F3.25
sI3883
I4
sI229773
I4
sI4462
F4.25
sI5773
F2.5
sI182704
I4
sI3783
F1.75
sI334613
F2.5
sI1121911
F3.5
sI5848
I4
sI4473
I4
sI3834
F4.5
sI3839
I4
ssS'Fuse220'
p267
(dp268
I959233
F4.5
sI1075202
F4.25
sI6277
F3.25
sI48774
F4.25
sI38921
F3.75
sI755722
F3.75
sI10891
I4
sI6284
I4
sI575245
I4
sI3949
F3.5
sI8056
I4
sI1175317
F3.5
sI912790
I4
sI637464
I4
sI10010
I4
sI28
F4.75
sI1109662
F3.75
sI3952
I4
sI646818
I4
sI4133
I4
sI1093276
I4
sI425390
F4.25
sI15793
I4
sI10291
F4.5
sI326708
F4.5
sI401182
F3.5
sI5431
I4
sI4667
I3
sI8326
F3.5
sI571847
I4
sI994633
I4
sI3914
F3.5
sI510027
I3
sI370380
F4.25
sI36834
F4.25
sI8781
F3.5
sI15185
I4
sI16338
F4.25
sI114972
I4
sI5849
F2.5
sI5850
I0
sI148322
F3.75
sI17636
I3
sI3558
F4.25
sI428266
F3.5
sI731757
F4.25
sI431728
F3.75
sI5112
I4
sI970492
I4
sI10773
I4
ssS'KingJoyce'
p269
(dp270
I6400
I3
sI346754
F4.25
sI613768
I4
sI428
I4
sI423179
I4
sI199948
I4
sI98701
I5
sI864143
I5
sI986257
I3
sI656917
F3.75
sI6422
F3.5
sI2329
I5
sI127388
I5
sI401182
F3.75
sI34039
F4.25
sI388257
F4.25
sI4516
I5
sI681769
I5
sI43
I5
sI60844
I3
sI1070
I5
sI949942
I5
sI1182007
I4
sI6841
I5
sI46651
F4.5
sI6976
I4
sI1101942
I4
sI867402
I5
sI84279
F3.25
sI5839
F4.25
sI574418
I4
sI17493
F0.25
sI314966
I5
sI506809
F4.25
sI380964
F3.5
sI1133280
F4.75
sI688865
I4
sI6341
F0.75
sI3942
I4
sI6887
I3
sI1082857
I5
sI433421
I3
sI132590
F4.5
sI305779
I4
sI372
F2.75
sI1189622
I5
sI285993
F3.75
sI5626
I4
sI3837
F4.5
sI6655
I1
ssS'MyWastedBrain'
p271
(dp272
I915330
F3.25
sI809221
I4
sI186375
F3.75
sI1157128
F4.75
sI9644
F3.75
sI1095690
F4.5
sI1095695
F3.75
sI999313
F3.75
sI477842
F4.5
sI862483
F3.75
sI1186584
F4.75
sI746521
I4
sI95386
F3.25
sI9631
I3
sI1210520
F0.25
sI1038890
F1.75
sI1105964
I3
sI1042478
I3
sI10032
F4.5
sI888627
I4
sI25654
F4.25
sI1030586
F2.75
sI46865
I4
sI1030589
F3.75
sI713537
F3.5
sI852803
F4.5
sI378308
F3.75
sI650311
I4
sI76
F2.5
sI2001
F3.75
sI398163
F4.25
sI1001813
I4
sI15319
F3.5
sI1041752
I4
sI479449
F4.5
sI24416
I3
sI1172962
F4.5
sI229989
F3.25
sI55911
I4
sI995516
F4.25
sI4586
F4.5
sI825964
I4
sI8558
F3.75
sI480253
F3.25
sI670961
F4.25
sI121844
F4.25
sI323318
F3.75
sI37114
I2
sI842875
F2.5
sI1185706
F4.25
ssS'Jackets60'
p273
(dp274
I6272
F4.25
sI1057284
F4.25
sI384778
F3.25
sI89357
F4.75
sI5473
I4
sI409366
F3.25
sI408
I4
sI640027
I4
sI324637
F3.75
sI459296
I4
sI1102113
F3.25
sI106787
F3.75
sI490277
F3.5
sI4009
F4.5
sI991018
I1
sI807979
F4.25
sI882221
F4.5
sI1056690
I4
sI16695
I4
sI739136
F3.5
sI7875
I4
sI1173473
F3.75
sI1024586
F4.5
sI695927
F3.75
sI686799
F4.5
sI1195896
F3.75
sI1057362
F4.5
sI308692
I4
sI113880
F3.25
sI1186521
F4.25
sI1164251
F3.25
sI1079516
F4.5
sI1223005
I4
sI489695
I4
sI11489
F3.75
sI49892
F4.25
sI1163109
I4
sI609899
F3.5
sI34285
F4.75
sI41671
F4.25
sI137969
I4
sI836723
F4.5
sI1047028
F3.75
sI175862
F3.75
sI547447
I3
sI636664
F4.25
sI361211
I4
sI1163005
F3.5
sI1069310
I4
sI83967
I4
ssS'Gasellen'
p275
(dp276
I1064577
I0
sI19459
I0
sI14597
I0
sI1025676
I0
sI1199760
I0
sI46865
I0
sI126867
I0
sI867732
I0
sI1042965
I0
sI3095
I0
sI76824
I0
sI1199775
I0
sI446372
I0
sI79782
I0
sI764071
I0
sI1042478
I0
sI235696
I0
sI179
I0
sI26164
I0
sI1161909
I0
sI343224
I0
sI1044155
I0
sI6204
I0
sI461898
I0
sI643779
I0
sI732231
I0
sI823882
I0
sI579403
I0
sI7896
I0
sI25293
I0
sI137681
I0
sI6755
I0
sI17748
I0
sI733398
I0
sI1041752
I0
sI47923
I0
sI360955
I0
sI1152482
I0
sI663163
I0
sI1096165
I0
sI6609
I0
sI528616
I0
sI323305
I0
sI1038699
I0
sI112877
I0
sI308462
I0
sI102376
I0
sI72947
I0
sI257147
I0
sI29311
I0
ssS'lankinho'
p277
(dp278
I959233
F4.5
sI791814
F3.25
sI1023276
F3.5
sI699914
F3.75
sI502928
F4.25
sI626008
F3.5
sI1939
F3.5
sI1428
I3
sI1207470
F3.75
sI685592
I4
sI772121
F3.25
sI1154459
I3
sI222109
F3.25
sI1223845
F3.5
sI362406
I4
sI67239
F1.25
sI1207336
F3.75
sI6572
I4
sI1171757
I3
sI1224110
F3.75
sI1183453
F3.25
sI399285
F4.5
sI1186489
F4.25
sI1183418
I3
sI1044155
F3.5
sI7486
I3
sI630719
F3.25
sI239552
F3.75
sI840770
F3.75
sI140611
F2.75
sI271173
F3.5
sI8518
I4
sI1000273
F3.5
sI367058
I3
sI67299
F3.75
sI1050712
F3.5
sI127837
F3.25
sI74847
F3.75
sI4705
F3.5
sI4667
I2
sI651623
I3
sI67943
F3.75
sI308462
F4.25
sI326642
I3
sI743027
F3.75
sI23542
F2.5
sI811383
F3.75
sI1026168
F4.5
sI23292
F4.25
sI7935
I4
ssS'Doomsdaycj'
p279
(dp280
I1096875
I5
sI5382
I3
sI162311
F4.25
sI673549
F3.5
sI5775
F4.5
sI933141
F3.5
sI1065366
F2.25
sI557976
F3.5
sI293529
I3
sI1138202
I5
sI3995
F2.75
sI95386
F3.25
sI384798
F4.25
sI384799
F3.75
sI367398
I3
sI931114
F3.75
sI18311
F3.5
sI5037
I5
sI61743
I3
sI348850
F4.25
sI6451
F4.25
sI249402
F4.25
sI943135
I4
sI316
F3.75
sI1128510
F3.25
sI319
F4.75
sI1123265
F4.25
sI1046722
I4
sI733509
F4.25
sI168268
F3.5
sI472782
F3.75
sI1182941
F4.25
sI57171
F3.25
sI15188
F4.25
sI419534
F3.75
sI1164887
F4.25
sI739673
F4.75
sI890075
F2.75
sI3898
I4
sI14435
F3.25
sI392679
F3.75
sI2025
F3.75
sI39071
F2.5
sI5999
F2.5
sI323826
I4
sI1118452
F4.25
sI1067255
F3.75
sI1063032
F2.75
sI184553
I4
sI393471
F4.25
ssS'JacobT'
p281
(dp282
I7808
F3.25
sI19459
F3.75
sI6276
F1.5
sI6407
F3.5
sI657160
F3.25
sI379147
F3.25
sI908
F3.25
sI5006
F3.75
sI1158799
I4
sI719249
I4
sI208787
F2.75
sI72983
F2.75
sI15215
I4
sI1146309
F3.5
sI935076
F4.25
sI2983
I3
sI863929
F4.5
sI643882
F3.75
sI1070
F3.75
sI1071
F3.5
sI638512
I4
sI15665
F4.25
sI5428
F3.5
sI821
I3
sI313
I4
sI1173820
F4.25
sI318
F3.25
sI319
I4
sI176962
I3
sI10691
F3.5
sI169796
F3.75
sI6725
F3.5
sI5964
I4
sI3914
I2
sI6860
F4.25
sI193485
F3.5
sI656591
F2.5
sI1171159
I3
sI31323
I4
sI292602
I4
sI643769
F3.5
sI1010533
F2.5
sI21991
F3.25
sI6119
F3.25
sI308462
F3.75
sI1160687
F3.75
sI5455
F3.25
sI1030394
F4.5
sI1020030
F3.5
sI8063
I4
ssS'Granddaddy'
p283
(dp284
I24675
F3.75
sI11587
I3
sI6700
F3.25
sI159569
F3.25
sI7491
I4
sI3833
I3
sI4473
F4.75
ssS'saison90'
p285
(dp286
I289921
F3.75
sI1161988
F3.75
sI6407
F3.5
sI803978
I3
sI11659
F4.25
sI1203980
I5
sI6926
F2.5
sI697304
F3.25
sI7705
F3.5
sI19866
I4
sI127388
I4
sI1221
F3.75
sI40880
I4
sI705186
I4
sI375332
F3.5
sI57511
I5
sI1224874
I3
sI1059756
F4.25
sI1143472
I4
sI26049
I5
sI975305
F3.5
sI1118136
F3.5
sI43833
F3.5
sI442
F4.25
sI1118141
F3.5
sI958014
F3.25
sI352321
I3
sI733509
F3.75
sI1036102
F0.25
sI4679
I3
sI659529
F0.5
sI5943
I4
sI5944
F0.5
sI315858
I2
sI1213011
F4.5
sI24152
I4
sI697049
F3.75
sI63706
I3
sI1182941
F3.75
sI1198430
F3.75
sI763056
F4.5
sI75618
F4.75
sI253669
I3
sI361534
F2.5
sI1038060
I4
sI4589
I4
sI800757
I1
sI23292
I5
sI893
F3.75
sI1213311
I4
ssS'naz_'
p287
(dp288
I959233
I3
sI791814
F3.25
sI502928
F3.75
sI1939
I3
sI1428
I3
sI1207470
F3.5
sI685592
I4
sI772121
I4
sI222109
I3
sI1223845
F2.75
sI362406
I4
sI1207336
I4
sI1023276
I3
sI1171757
F2.5
sI1224110
F2.5
sI1183453
F2.75
sI743027
F3.5
sI399285
F3.5
sI1186489
I4
sI1183418
F2.75
sI1044155
F2.75
sI7486
I3
sI630719
F3.25
sI239552
F3.75
sI840770
F3.25
sI140611
F2.5
sI271173
F3.5
sI8518
I4
sI967627
I3
sI51917
I3
sI1000273
I4
sI67299
F3.75
sI95700
F1.75
sI1050712
I4
sI127837
F3.5
sI74847
I4
sI4705
F3.5
sI4667
F1.75
sI447332
F2.75
sI651623
I3
sI584700
I2
sI67943
I3
sI308462
F3.5
sI615155
F3.75
sI23542
F1.75
sI811383
F3.75
sI1026168
I4
sI23292
I3
sI508286
F3.75
sI7935
I3
ssS'lulucherie'
p289
(dp290
I51016
I0
sI428266
I0
ssS'wwnick'
p291
(dp292
I954989
F4.25
sI632321
F4.25
sI656899
I4
sI6284
F3.25
sI1212430
F4.5
sI1186959
I4
sI1224850
F3.5
sI856723
F4.25
sI252180
I4
sI554773
I4
sI1065366
I4
sI95386
I4
sI8082
F3.5
sI1213219
I4
sI10371
F4.25
sI1181221
F3.5
sI976551
I4
sI1206440
I4
sI681769
F4.5
sI446251
F4.25
sI963760
I4
sI1187761
I4
sI1172535
I4
sI659129
I4
sI723935
I4
sI384444
I4
sI1229117
I4
sI216383
F3.5
sI83904
F3.75
sI724546
I4
sI581837
F4.25
sI383188
F4.25
sI1213141
I4
sI727002
F3.75
sI5135
F3.25
sI1182941
F3.75
sI764672
I4
sI406125
F3.5
sI1088864
F3.75
sI1138145
I4
sI403941
I4
sI466151
I4
sI190311
F4.25
sI499436
I4
sI1106029
F4.5
sI389614
I4
sI8307
F3.25
sI642165
F3.75
sI1041155
F3.75
sI65785
F4.25
ssS'Rendrag1984'
p293
(dp294
I132097
I0
sI585609
I0
sI1129098
I0
sI1084811
I0
sI717326
I0
sI18063
I0
sI215059
I0
sI1180821
I0
sI1212950
I0
sI154
I0
sI1179804
I0
sI4509
I0
sI859808
I0
sI481570
I0
sI1573
I0
sI675110
I0
sI145448
I0
sI332969
I0
sI570333
I0
sI1113008
I0
sI4168
I0
sI6601
I0
sI9145
I0
sI1111739
I0
sI5440
I0
sI3778
I0
sI6923
I0
sI4680
I0
sI6988
I0
sI5707
I0
sI4044
I0
sI5972
I0
sI29149
I0
sI680161
F0.25
sI1225314
I0
sI213477
I0
sI358
I0
sI487
I0
sI6760
I0
sI517994
I0
sI3948
I0
sI30445
I0
sI236654
I0
sI6511
I0
sI1086705
I0
sI4469
I0
sI155897
I0
sI38651
I0
sI350845
I0
sI219007
I0
ssS'markushamilton'
p295
(dp296
I6400
I3
sI1138202
F4.5
sI1121155
I4
sI265989
F3.75
sI6407
F3.5
sI4488
F3.5
sI198793
I4
sI393098
I4
sI6415
F3.75
sI965776
I4
sI563602
F3.75
sI1164309
I4
sI8343
I5
sI1206170
F3.5
sI1108124
I4
sI4509
F3.5
sI1456
F3.5
sI1085476
F3.75
sI5413
I4
sI977580
I3
sI218334
F3.75
sI15665
I4
sI364850
F4.25
sI888627
F3.75
sI5428
I4
sI7477
F4.25
sI85303
F3.5
sI1197114
F3.75
sI1353
F3.25
sI70581
F3.5
sI33219
I5
sI11845
I4
sI5190
F4.25
sI201
I4
sI471505
I4
sI315858
I4
sI129033
F3.5
sI5848
I3
sI1023276
F3.75
sI674270
I4
sI627551
I0
sI21991
I4
sI10088
F3.5
sI428266
I4
sI198572
F3.5
sI4590
F3.75
sI8949
I3
sI737399
F3.25
sI424316
F3.75
sI1154687
F3.5
ssS'ChelsyW'
p297
(dp298
I6400
F2.5
sI418433
F2.5
sI4995
F0.5
sI593156
I4
sI6422
F3.25
sI783489
F3.25
sI6410
I2
sI130571
F3.5
sI1229452
F2.5
sI5180
F1.25
sI602768
I4
sI376209
I3
sI623508
F2.5
sI728366
F2.75
sI32790
F2.75
sI1138202
F1.5
sI1086758
I4
sI978606
I2
sI290095
F4.5
sI1179568
I3
sI623542
I3
sI572730
F1.75
sI62523
F4.5
sI39740
F3.75
sI124349
F3.75
sI3916
I3
sI867402
I5
sI1128908
F2.75
sI50893
I2
sI82680
I4
sI4179
F1.75
sI340315
I3
sI12346
F2.75
sI8928
I4
sI1212897
I2
sI70502
F1.25
sI2153
F3.5
sI428266
I1
sI960109
I1
sI4590
F4.5
sI5117
F3.5
sI1193201
F3.25
sI1164402
F2.75
sI365310
F1.75
sI13560
F2.25
sI1229435
I3
sI70140
I3
sI2154
I3
sI86014
I3
sI871679
I2
ssS'Ekmock29'
p299
(dp300
I937091
I5
sI7044
I5
sI344199
I5
sI7852
I5
sI58252
F4.75
sI1191822
I5
sI8601
I5
sI63643
I5
sI8606
I5
sI193439
I5
sI4899
I5
sI7204
I5
sI55461
I5
sI317735
F4.75
sI678696
I5
sI24491
I5
sI392748
I5
sI7725
I5
sI157870
I5
sI6191
I5
sI10804
I5
sI691381
I5
sI583689
I5
sI867402
I5
sI13560
I5
sI3776
I5
sI7747
I5
sI528456
I5
sI49866
I5
sI1022924
I5
sI355021
I5
sI44369
I5
sI7378
I5
sI72078
I5
sI62553
I5
sI285658
I5
sI21077
I5
sI265893
I5
sI7520
I5
sI971879
I5
sI18665
I5
sI389226
F4.75
sI16210
I5
sI30706
I5
sI8949
F4.75
sI23032
I5
sI781690
I5
sI902911
I5
sI5117
I5
sI6911
I5
ssS'AustinArnett'
p301
(dp302
I764672
F2.5
sI132097
I4
sI1075202
F4.25
sI16649
F3.75
sI1111692
I4
sI78146
I2
sI269459
I4
sI1084442
I4
sI1110383
F3.75
sI5406
I4
sI4593
F3.75
sI245160
F3.5
sI5801
F3.75
sI882
F4.25
sI441520
F3.5
sI3121
F3.5
sI179
F4.25
sI326708
I4
sI1536
F3.5
sI1066381
I4
sI10676
F3.5
sI25524
F3.25
sI364477
F3.75
sI35138
I4
sI5445
F3.5
sI36834
F3.25
sI1042639
I4
sI1119569
I4
sI511192
I4
sI129627
F3.5
sI1110749
F3.5
sI645984
F3.5
sI1076454
F3.75
sI939234
F3.25
sI70502
F3.75
sI1152998
F4.25
sI626385
I3
sI428266
F3.75
sI499431
I4
sI6765
F4.25
sI4463
F3.5
sI431728
I3
sI1079793
F3.5
sI690930
F4.5
sI5875
F3.5
sI372
I4
sI1199612
F3.75
sI102
F3.75
sI6526
I4
sI183295
F3.5
ssS'Puginator'
p303
(dp304
I4995
I4
sI4997
F3.5
sI438662
F4.25
sI10759
F3.5
sI8074
I5
sI6539
I5
sI315406
I5
sI42128
I5
sI975107
F2.75
sI933141
F3.25
sI25796
F3.75
sI64417
F4.5
sI1826
F4.5
sI464035
I5
sI8614
I5
sI21035
F3.75
sI174
F3.75
sI3759
I4
sI13105
F3.5
sI745906
I4
sI5173
I4
sI5047
F3.25
sI10018
F4.75
sI361534
F4.25
sI1002816
F3.75
sI109121
F3.5
sI1086921
F4.25
sI5771
F3.75
sI1083844
I5
sI6725
F4.75
sI211016
F3.25
sI1353
F4.75
sI7373
I5
sI13135
F2.5
sI908887
F3.75
sI17113
F4.25
sI1042639
F3.25
sI5469
I5
sI829407
F3.75
sI682338
I4
sI273254
F3.5
sI9062
F4.25
sI1037420
F3.5
sI977135
I3
sI882238
I5
sI308727
I4
sI3832
F3.75
sI405755
I4
sI11517
I4
sI4607
F3.5
ssS'jglesias'
p305
(dp306
I326918
I4
sI448779
F2.25
sI6412
F3.5
sI837390
F3.5
sI1026703
F4.25
sI1035352
F3.25
sI7982
I3
sI974959
F3.75
sI5406
F3.75
sI19359
F3.5
sI1135776
F4.25
sI1042081
F4.5
sI6565
F3.75
sI876582
F3.5
sI976551
F4.5
sI273966
I3
sI29100
F3.75
sI943789
F3.5
sI969134
F3.5
sI787632
I4
sI179249
F3.5
sI79957
I4
sI371391
I4
sI981205
F4.5
sI25668
F3.25
sI687047
F4.5
sI326856
F4.25
sI219660
F3.25
sI196684
I3
sI1035213
F3.5
sI1042639
F3.5
sI25168
F3.25
sI266065
F3.5
sI4870
F3.5
sI555987
F3.5
sI1209870
F4.25
sI1102807
F3.5
sI121023
I4
sI387407
F3.5
sI93307
I5
sI1163109
F4.5
sI166609
I4
sI557801
F4.25
sI291687
F3.25
sI1037420
F3.5
sI822869
I4
sI205423
F3.25
sI4607
I3
sI1069310
I4
sI134741
F3.75
ssS'D-Bach'
p307
(dp308
I781572
I4
sI6410
F3.5
sI1078672
F3.75
sI294291
I3
sI573550
I4
sI564502
F3.5
sI11524
I4
sI1138202
I4
sI6299
I3
sI787997
I4
sI970526
I0
sI1081631
F4.75
sI478112
F3.5
sI453666
F2.75
sI1827
F3.25
sI509604
I3
sI1207589
F3.5
sI1126054
F3.75
sI155431
F3.5
sI1023024
F3.25
sI1185716
I4
sI784158
F0.25
sI1023030
I3
sI1033783
F4.25
sI8380
I3
sI1045411
F4.25
sI1220290
F3.75
sI837195
F3.75
sI1128516
F3.75
sI787915
F3.25
sI532814
I3
sI387407
F3.5
sI1039569
F3.5
sI241059
I4
sI1164887
F4.25
sI13529
I5
sI2140
I3
sI1198430
I4
sI656293
F3.75
sI1031394
I4
sI2789
I3
sI1219046
I0
sI502951
F3.25
sI414573
F3.5
sI308462
F4.25
sI491633
F3.25
sI1125790
I4
sI1180920
F0.75
sI1182461
I3
sI129151
F3.5
ssS'turnstile94'
p309
(dp310
I22659
F3.5
sI1160836
F3.75
sI278152
F3.25
sI543753
F3.75
sI1164887
F3.5
sI1188239
F3.25
sI1217425
I4
sI189715
F3.75
sI1065492
F3.75
sI5269
F3.75
sI256920
F3.5
sI945178
I4
sI769327
F3.75
sI127388
F3.5
sI1138202
I4
sI753569
F3.75
sI953386
F3.75
sI1164971
F4.25
sI1010141
F4.25
sI715185
I4
sI354738
F4.25
sI12339
F3.5
sI228921
F3.5
sI18746
I3
sI1063112
F3.75
sI5308
F3.5
sI12350
F4.25
sI1049539
I4
sI63428
F3.75
sI1213000
F3.5
sI1219657
F3.25
sI7799
I4
sI745549
F3.5
sI2773
F3.5
sI497750
F3.25
sI128855
F3.75
sI561880
I4
sI752347
F3.5
sI1082717
F3.75
sI5476
I4
sI39781
F3.75
sI196497
F4.25
sI20840
I4
sI90129
F3.5
sI1154888
F3.5
sI325864
I4
sI1205619
I4
sI6775
I4
sI178430
F3.25
sI1163797
I4
ssS'GarthHerr'
p311
(dp312
I975744
F3.75
sI2561
I4
sI405035
F3.75
sI1221894
F3.5
sI5771
F3.75
sI920
I4
sI8211
F3.75
sI297752
F3.75
sI101273
I3
sI293531
I4
sI1014301
F3.5
sI591429
F4.5
sI357026
F3.75
sI6308
I4
sI994213
F3.5
sI155431
F4.5
sI505643
I4
sI209710
F3.75
sI1172125
I4
sI155824
F4.75
sI1206961
F3.75
sI673586
F3.75
sI338358
F3.25
sI201
I4
sI140015
F3.75
sI624927
F3.75
sI992703
F3.25
sI14225
F3.75
sI83904
I4
sI107333
F2.75
sI1206217
F3.75
sI13765
F3.25
sI21077
F3.75
sI1212665
F3.25
sI579364
F3.75
sI1206235
F4.25
sI44381
F3.5
sI138719
F3.25
sI113889
I4
sI524516
F3.5
sI319461
F4.25
sI656486
F3.5
sI8935
F4.25
sI81519
F4.25
sI1102064
F3.5
sI1207795
F3.5
sI35958
F3.75
sI1155703
I3
sI1206905
I4
sI424316
I4
ssS'kimbret1'
p313
(dp314
I5504
F4.75
sI450880
F4.75
sI1066923
F3.5
sI1060358
I5
sI822409
F4.25
sI372362
F2.75
sI1023703
F3.5
sI18063
I3
sI814227
F4.25
sI792731
I3
sI976028
I4
sI299038
I5
sI799
F2.75
sI59483
F2.5
sI675110
F4.5
sI198065
F3.25
sI59690
I3
sI562219
F3.75
sI490285
F4.25
sI1094320
F4.25
sI1051697
F3.75
sI571847
F2.5
sI130447
I3
sI618806
F2.75
sI468020
F4.5
sI21180
F3.5
sI310282
F2.75
sI6206
I4
sI784832
I2
sI5191
F4.25
sI867402
I5
sI984939
F3.75
sI557011
F4.5
sI78986
F4.25
sI1164887
I4
sI708184
I4
sI232794
F3.5
sI340315
F3.5
sI6109
F1.5
sI680414
F4.5
sI236901
I4
sI11369
I3
sI19434
F3.5
sI5483
F3.5
sI860909
F3.5
sI773232
I2
sI1093331
F4.25
sI627063
F3.5
sI8314
I5
sI706556
I2
ssS'Rathe6'
p315
(dp316
I80930
I0
sI252355
I0
sI3942
I0
sI6887
I0
sI428266
I0
sI36834
I0
sI11024
I0
sI9681
I0
sI50162
I0
sI867402
I0
sI9078
I0
sI9080
I0
sI9084
I0
sI4509
I0
ssS'zzx0259'
p317
(dp318
I1044097
F4.25
sI950468
I4
sI18693
F3.5
sI132097
I4
sI24589
I4
sI5776
I4
sI912790
F3.75
sI812889
I3
sI298905
F3.5
sI1084442
F3.25
sI11810
I4
sI382755
I3
sI4133
F3.5
sI290472
F4.25
sI36834
I4
sI392748
F4.25
sI387621
F4.25
sI3121
I3
sI5555
I5
sI326708
I4
sI821
F4.5
sI2743
I4
sI600895
I4
sI844792
F3.5
sI243652
F3.5
sI820342
I4
sI117064
F4.25
sI646818
I3
sI193485
F3.5
sI8056
F3.75
sI15188
I4
sI338773
I4
sI372054
F3.75
sI785880
F4.5
sI1092441
I4
sI383962
F2.75
sI988252
I4
sI10589
I4
sI1053023
F3.75
sI2530
I4
sI912763
I4
sI387558
I4
sI70502
F3.75
sI1092330
I4
sI3952
I4
sI90102
I3
sI6392
F2.75
sI27391
I3
sI568188
I4
sI275839
F3.75
ssS'Masssoc5'
p319
(dp320
I3840
I0
sI3883
I0
sI347653
I0
sI10759
I0
sI3977
I0
sI302091
I0
sI740493
I0
sI77455
F3.75
sI602768
I0
sI5907
I0
sI978837
I0
sI144918
I0
sI1021848
I0
sI84251
I0
sI3102
I0
sI1826
I4
sI577315
I0
sI1060006
I0
sI4010
I0
sI4871
I0
sI1027372
I0
sI17588
I0
sI6729
I0
sI9657
I0
sI39740
I0
sI70974
F3.25
sI5440
I0
sI5571
I0
sI156870
F4.5
sI3783
I0
sI3784
I0
sI1353
I0
sI3916
I0
sI245201
I0
sI4947
F3.75
sI8917
I4
sI5848
I0
sI994484
I0
sI214623
I0
sI3811
I0
sI5860
I0
sI5867
I0
sI8731
F3.75
sI1160687
I0
sI8949
F4.5
sI844792
I0
sI4473
I0
sI3834
I0
sI6655
I0
sI3839
I0
ssS'noisufnoc'
p321
(dp322
I393088
F4.25
sI1044097
I5
sI7044
F4.5
sI347653
I4
sI18311
F4.5
sI1025452
I4
sI1029898
F4.75
sI12943
I4
sI641424
I4
sI9617
I4
sI1011630
I4
sI1085718
F4.25
sI1091610
F4.75
sI269469
I5
sI1079685
F4.5
sI4515
F4.5
sI5702
F4.75
sI2983
F4.5
sI1173420
F4.25
sI1133403
I5
sI623281
F4.25
sI5046
F4.75
sI695996
F4.25
sI461373
F4.25
sI994881
F4.75
sI210755
I5
sI8646
F4.25
sI1042639
F4.75
sI71761
F4.5
sI57046
F4.25
sI5723
F4.5
sI1182941
F4.5
sI348511
F4.75
sI645984
F4.25
sI1078672
F4.5
sI325859
F3.25
sI602596
F4.75
sI18577
F4.5
sI6760
F4.5
sI1029353
I5
sI428266
F4.25
sI34412
I3
sI1198957
F4.5
sI9454
I4
sI915312
I5
sI1101942
I4
sI752247
I5
sI718586
F4.5
sI22011
I4
sI345471
F4.5
ssS'juju1337'
p323
(dp324
I1116289
F3.75
sI384899
F1.5
sI205586
I4
sI1034007
F3.25
sI175428
F2.5
sI154
I4
sI888367
F4.25
sI221088
F2.5
sI211873
F3.75
sI769051
F3.25
sI973732
F2.5
sI796453
I2
sI282919
F3.25
sI773033
F2.75
sI391339
F3.5
sI1213554
F2.25
sI56110
F1.75
sI1220655
F4.5
sI20144
I3
sI712370
F2.25
sI179
F3.5
sI348600
I2
sI27194
F2.5
sI369724
I4
sI1041469
F3.5
sI10174
F3.25
sI528608
F2.5
sI9538
F2.5
sI63428
F1.75
sI674374
I4
sI9933
I3
sI1199001
F3.5
sI6511
F3.75
sI1153647
F3.5
sI756463
F2.5
sI7520
I2
sI218977
F3.25
sI391140
F3.5
sI450917
F3.25
sI6758
F3.5
sI1639
F2.5
sI13244
F2.75
sI1643
I3
sI84460
F1.75
sI854717
F3.75
sI8304
F2.5
sI1153649
F2.75
sI263666
F3.5
sI170878
F0.25
sI33023
F3.75
ssS'Serch27'
p325
(dp326
I883588
I4
sI992230
F2.5
sI1212010
F4.75
sI50348
F4.25
sI849902
I3
sI797
I4
sI86036
F4.75
sI97557
F3.75
sI4473
I5
sI5849
I3
sI210255
I4
sI1168924
F2.75
sI7005
I3
sI147263
I4
ssS'PB2000'
p327
(dp328
I1223936
I0
sI23851
I3
sI38700
F2.5
sI82573
F2.25
sI675222
F4.5
sI961265
F3.5
sI162332
I5
sI1204639
F3.75
sI14240
F3.5
sI193825
I4
sI999462
F3.5
sI92455
F3.25
sI1160488
F3.5
sI37577
F3.5
sI227627
F3.5
sI123564
F3.25
sI678959
I2
sI1181744
F3.5
sI1145779
F3.75
sI501431
F3.5
sI1207480
F3.75
sI501433
F3.5
sI761531
F3.5
sI812348
I1
sI22974
F3.75
sI1124932
F3.75
sI536609
F3.5
sI81736
F3.5
sI968521
I4
sI48974
F4.25
sI829391
F4.25
sI279252
F4.25
sI419534
F4.25
sI1224151
I5
sI1041752
I4
sI1145697
F3.75
sI1081188
F3.5
sI1180518
I3
sI973670
F3.75
sI1190889
F3.5
sI1065324
F4.25
sI954989
I3
sI147182
F2.25
sI885616
I2
sI268785
F3.5
sI34547
I4
sI1199482
F3.75
sI1134844
F4.25
sI1072254
I3
sI787967
F3.75
ssS'GeoffreyM'
p329
(dp330
I392193
I3
sI3976
F1.25
sI898955
I4
sI1005272
F3.5
sI340497
F4.25
sI1130386
F4.25
sI1101973
I4
sI128663
F3.75
sI803737
F3.75
sI758555
F3.75
sI127388
F4.25
sI355485
F3.75
sI1826
F3.25
sI1107867
F4.25
sI1051301
I0
sI348584
F3.5
sI1107868
F3.75
sI70446
F3.75
sI1170223
F3.5
sI1456
I0
sI16434
F4.5
sI257589
F3.75
sI204086
I3
sI6730
F4.25
sI1098943
F3.5
sI5825
F3.5
sI906180
F3.5
sI1179975
F3.25
sI53192
F4.75
sI867402
F3.5
sI872184
F3.75
sI1074261
F4.5
sI133590
F3.75
sI1079256
F2.5
sI710181
F4.25
sI47584
F4.25
sI231394
F4.25
sI9829
F3.25
sI190311
F4.25
sI1115241
I4
sI575468
I4
sI1170285
F3.25
sI293744
F4.5
sI1110387
F4.25
sI364660
F4.25
sI18294
F3.75
sI1101304
F3.75
sI823160
F4.75
sI226555
I4
sI8700
F3.5
ssS'Scotttulino'
p331
(dp332
I959233
F4.5
sI642
F3.5
sI7044
I4
sI4997
F4.5
sI217990
I4
sI4487
I1
sI9346
I4
sI1172234
I5
sI6797
I3
sI42895
I4
sI702361
I4
sI8943
I4
sI379041
F2.5
sI884007
I5
sI319528
I4
sI4010
I3
sI468013
F3.5
sI33071
I4
sI1456
I4
sI144614
I4
sI5940
I4
sI5941
I4
sI6585
F4.5
sI438781
F4.5
sI152644
I4
sI789704
I4
sI694903
F3.5
sI327758
I4
sI4691
I5
sI162517
I4
sI285658
F4.5
sI1133403
I3
sI1246
F4.5
sI7520
I3
sI36834
F3.5
sI14564
F3.5
sI939878
I5
sI721382
I4
sI2025
F4.5
sI119914
F3.5
sI28524
F3.5
sI4079
I3
sI8304
F2.5
sI463346
I4
sI1118452
F4.5
sI800757
F4.5
sI1067255
F4.5
sI912763
F3.5
sI11517
I4
sI913150
I4
ssS'sethfox'
p333
(dp334
I959233
F4.5
sI1081218
I3
sI1121155
F4.25
sI6811
F3.5
sI12421
F2.5
sI103169
I2
sI8718
F3.5
sI709293
F4.5
sI519696
I3
sI9688
I3
sI577923
I3
sI120596
F2.75
sI933141
F3.25
sI705303
I3
sI5912
F2.75
sI509295
F3.5
sI749086
F3.5
sI508067
I3
sI905513
I3
sI562219
F3.75
sI7468
I3
sI792493
F3.25
sI835889
I3
sI1052085
I3
sI310200
F3.25
sI620987
I4
sI47157
I3
sI645984
F3.25
sI5956
I3
sI738632
I4
sI655689
I4
sI1071055
F2.5
sI1062352
I2
sI950871
I3
sI104920
F2.75
sI967132
F3.25
sI566368
F3.75
sI790245
I5
sI387558
F3.25
sI77457
F2.5
sI428266
I3
sI1046893
I3
sI646383
F3.25
sI16497
F3.75
sI730995
I4
sI18679
I4
sI32504
F3.5
sI8596
I3
sI44282
F2.5
sI533372
F3.5
ssS'Klingonswe'
p335
(dp336
I1536
I3
sI234539
F3.25
sI5852
F3.25
sI791814
I2
sI38925
I3
sI1030286
F3.75
sI5519
F2.25
sI433426
F2.5
sI586774
I3
sI1161118
I3
sI1829
I3
sI13532
F3.25
sI6443
I4
sI236465
I3
sI56247
I2
sI674104
F2.5
sI897981
F2.75
sI378559
F2.5
sI7233
I3
sI5571
I3
sI6347
F2.25
sI16482
F2.75
sI990413
I3
sI100304
I4
sI187768
I3
sI1101138
F3.25
sI1101139
F3.25
sI25614
I3
sI925785
F3.5
sI189455
F3.25
sI144092
F3.25
sI628701
I3
sI581854
F3.5
sI139359
F3.25
sI7520
I3
sI9826
I3
sI17636
I3
sI647653
F3.25
sI973670
F3.5
sI1077352
F2.75
sI143851
F3.25
sI87789
F2.75
sI170353
F3.5
sI30450
I4
sI822900
F3.5
sI10358
F3.25
sI34039
I3
sI1040013
F3.5
sI8697
F3.5
sI424316
F2.5
ssS'Dandalf'
p337
(dp338
I975107
F3.25
sI2757
I3
sI4903
F4.75
sI867402
F4.25
sI489132
I3
sI308462
I5
sI627506
F3.5
sI212867
F4.5
sI7832
F3.25
sI22941
I4
sI883749
I5
ssS'yrflrlady'
p339
(dp340
I7173
I3
sI997825
I4
sI21768
F4.5
sI1084298
I4
sI49675
I3
sI4879
I3
sI495120
I3
sI12049
F4.5
sI646035
F3.5
sI528918
I2
sI970775
F3.5
sI769561
I4
sI1091610
I4
sI3995
I3
sI1131677
F3.5
sI18974
F3.75
sI3871
F1.75
sI983203
F3.25
sI317735
I3
sI1177647
F2.5
sI968368
F3.25
sI4529
I4
sI1138739
I4
sI399285
F4.5
sI53814
I3
sI3914
F2.75
sI73791
F2.5
sI10049
I4
sI948675
F2.5
sI1013060
I3
sI945610
I4
sI7671
I3
sI707405
I4
sI96975
F0.25
sI1007609
F3.75
sI424275
I4
sI1201110
F2.5
sI5335
I4
sI12385
I2
sI3942
F3.75
sI389226
F2.25
sI3692
F2.5
sI308462
I4
sI1111793
F1.25
sI16631
F3.5
sI35320
I4
sI49913
F3.5
sI781690
F4.75
sI405755
F3.75
sI66303
I4
ssS'tirajiqta'
p341
(dp342
I20482
I4
sI522500
F4.75
sI1106183
F3.5
sI19721
F3.75
sI17858
F4.5
sI485139
F3.5
sI33941
I3
sI678294
F4.25
sI300447
I4
sI7408
F4.25
sI17826
F3.75
sI544547
I4
sI21028
I4
sI794789
F4.25
sI7848
F4.5
sI8745
F4.5
sI38700
I4
sI416944
F4.25
sI99889
F3.75
sI99890
I4
sI15157
F3.5
sI668087
F3.75
sI454841
I4
sI793313
F3.75
sI5385
F3.5
sI1082173
F4.25
sI140565
F3.25
sI7489
F4.5
sI103362
F4.75
sI17860
I5
sI12357
F4.25
sI26529
F3.75
sI206665
I5
sI937655
F4.25
sI10703
F4.5
sI26531
F4.5
sI83159
F4.5
sI472
I4
sI7520
F4.25
sI21857
F4.25
sI30947
F3.75
sI695012
I4
sI92645
F4.25
sI6012
F4.25
sI723178
F4.25
sI8048
F3.75
sI179572
F4.75
sI3839
F3.5
sI7420
I4
sI20479
F4.25
ssS'beeree'
p343
(dp344
I3840
F3.5
sI81026
I4
sI997639
F4.25
sI4879
F3.25
sI15677
I4
sI1816
F3.5
sI95386
F3.5
sI734363
I3
sI2757
I4
sI595611
F4.25
sI509604
F4.25
sI629160
F3.75
sI909865
F4.25
sI210218
F3.75
sI802219
F3.75
sI8111
I4
sI173105
F2.75
sI88755
I4
sI468020
F3.75
sI101430
F3.5
sI1064503
F3.75
sI23559
F3.5
sI3770
F3.5
sI27325
F3.5
sI8949
I3
sI7875
F3.75
sI16581
F3.5
sI439
F3.5
sI2893
F3.75
sI31823
I4
sI2384
F4.5
sI9681
F4.5
sI772435
F3.5
sI247509
I3
sI1176151
I3
sI448092
I4
sI18526
F3.25
sI223
F3.5
sI3811
F2.5
sI19686
I3
sI1819
F3.5
sI14831
I3
sI773232
F3.25
sI234344
I4
sI808818
I4
sI11763
F3.5
sI372
F3.5
sI4469
F3.5
sI462839
I2
sI696063
I4
ssS'Jlinn1987'
p345
(dp346
I62337
I3
sI862981
I0
sI956038
F0.5
sI656551
I0
sI1353
I3
sI934730
I0
sI562219
I0
sI895244
F2.25
sI863280
I4
sI563602
F0.25
sI2931
I4
sI867605
I3
sI499862
I0
sI983340
F2.75
sI95386
I1
sI418111
I3
sI1138202
F3.75
sI1022821
I2
ssS'blueace122'
p347
(dp348
I6277
I2
sI395910
F3.5
sI18311
F3.5
sI1170988
F3.5
sI219660
F3.5
sI5262
F3.25
sI4879
F3.25
sI1038233
I3
sI748013
F3.5
sI19359
F3.25
sI556976
F3.5
sI382755
F3.5
sI594084
I3
sI326918
F3.25
sI876582
F3.75
sI976551
I4
sI1020968
I3
sI683
F3.5
sI198572
F3.5
sI943789
F3.25
sI969134
F3.5
sI787632
F3.5
sI179249
F3.25
sI735140
F3.5
sI952630
F3.75
sI43963
F3.5
sI5564
I3
sI371391
F3.75
sI3776
F3.25
sI1126466
F3.25
sI196684
F3.5
sI25168
F3.25
sI542035
F3.5
sI79957
F3.5
sI74073
F3.75
sI131291
I3
sI1182941
F3.5
sI21857
F3.25
sI93307
I4
sI1163109
F3.5
sI5862
I3
sI239591
F3.5
sI291687
F3.5
sI65644
F3.5
sI4973
F3.25
sI1111716
F3.75
sI442744
I4
sI45946
F3.5
sI104059
F3.5
sI4607
F3.5
ssS'Danielmasoero'
p349
(dp350
I1137793
I4
sI246914
F3.25
sI371158
I3
sI33159
F3.75
sI938504
F4.25
sI808204
F4.5
sI16270
F4.25
sI1173647
F4.5
sI429585
F3.75
sI13074
F3.25
sI402195
F4.25
sI15894
F3.75
sI538520
F3.75
sI113562
F4.5
sI1179038
I2
sI1144615
F4.5
sI402217
F2.5
sI78762
F3.5
sI1031852
F3.75
sI813485
I5
sI425390
F3.5
sI31541
F4.5
sI1182776
F4.25
sI5437
F4.5
sI1132853
F3.75
sI9283
F3.75
sI1083844
F4.75
sI403653
I4
sI403526
F3.5
sI9544
F3.75
sI867402
I4
sI1172298
F3.75
sI355021
F4.25
sI420690
F3.75
sI1150932
F3.5
sI137814
I4
sI392797
F4.25
sI3934
F4.5
sI813283
F3.25
sI1042664
I5
sI308462
F4.75
sI690930
I5
sI1101044
I4
sI938229
F4.75
sI593014
F3.75
sI1193592
F4.25
sI10105
F3.75
sI781690
I4
sI11134
F4.25
sI1170943
I3
ss.